                              1 ;--------------------------------------------------------
                              2 ; File Created by SDCC : FreeWare ANSI-C Compiler
                              3 ; Version 2.4.0 Thu Feb 10 12:42:27 2011
                              4 
                              5 ;--------------------------------------------------------
                              6 	.module src/keypad
                              7 	.optsdcc -mmcs51 --model-small
                              8 	
                              9 ;--------------------------------------------------------
                             10 ; Public variables in this module
                             11 ;--------------------------------------------------------
                             12 	.globl _mappingTable
                             13 	.globl _read_zone_temp_4
                             14 	.globl _read_zone_temp_3
                             15 	.globl _read_zone_temp_2
                             16 	.globl _read_zone_temp_1
                             17 	.globl _find_mapping_code
                             18 	.globl _delay_counter
                             19 	.globl _blink_counter
                             20 	.globl _T2_count
                             21 	.globl _T1_count
                             22 	.globl _keypad_init
                             23 	.globl _keypad_pop_front
                             24 	.globl _keypad_check_front
                             25 	.globl _keypad_purge_buffer
                             26 	.globl _keypad_get_last_code
                             27 	.globl _timer0_interrupt
                             28 ;--------------------------------------------------------
                             29 ; special function registers
                             30 ;--------------------------------------------------------
                    0080     31 _P0	=	0x0080
                    0081     32 _SP	=	0x0081
                    0082     33 _DPL	=	0x0082
                    0083     34 _DPH	=	0x0083
                    0087     35 _PCON	=	0x0087
                    0088     36 _TCON	=	0x0088
                    0089     37 _TMOD	=	0x0089
                    008A     38 _TL0	=	0x008a
                    008B     39 _TL1	=	0x008b
                    008C     40 _TH0	=	0x008c
                    008D     41 _TH1	=	0x008d
                    0090     42 _P1	=	0x0090
                    0098     43 _SCON	=	0x0098
                    0099     44 _SBUF	=	0x0099
                    00A0     45 _P2	=	0x00a0
                    00B0     46 _P3	=	0x00b0
                    00B8     47 _IP	=	0x00b8
                    00C8     48 _T2CON	=	0x00c8
                    00C9     49 _T2MOD	=	0x00c9
                    00CA     50 _RCAP2L	=	0x00ca
                    00CB     51 _RCAP2H	=	0x00cb
                    00CC     52 _TL2	=	0x00cc
                    00CD     53 _TH2	=	0x00cd
                    00D0     54 _PSW	=	0x00d0
                    00E0     55 _A	=	0x00e0
                    00A6     56 _WDTRST	=	0x00a6
                    00A7     57 _WDTPRG	=	0x00a7
                    00A2     58 _AUXR1	=	0x00a2
                    008E     59 _AUXR	=	0x008e
                    00B9     60 _SADEN	=	0x00b9
                    00BA     61 _SADEN_1	=	0x00ba
                    00B7     62 _IPH	=	0x00b7
                    00B7     63 _IPH0	=	0x00b7
                    00B8     64 _IPL	=	0x00b8
                    00B8     65 _IPL0	=	0x00b8
                    00A8     66 _IE	=	0x00a8
                    00A9     67 _SADDR	=	0x00a9
                    00AA     68 _SADDR_1	=	0x00aa
                    00D8     69 _CCON	=	0x00d8
                    00D9     70 _CMOD	=	0x00d9
                    00DA     71 _CCAPM0	=	0x00da
                    00DB     72 _CCAPM1	=	0x00db
                    00DC     73 _CCAPM2	=	0x00dc
                    00DD     74 _CCAPM3	=	0x00dd
                    00DE     75 _CCAPM4	=	0x00de
                    00E9     76 _CL	=	0x00e9
                    00EA     77 _CCAP0L	=	0x00ea
                    00EB     78 _CCAP1L	=	0x00eb
                    00EC     79 _CCAP2L	=	0x00ec
                    00ED     80 _CCAP3L	=	0x00ed
                    00EE     81 _CCAP4L	=	0x00ee
                    00E0     82 _ACC	=	0x00e0
                    00F0     83 _B	=	0x00f0
                    00F9     84 _CH	=	0x00f9
                    00FA     85 _CCAP0H	=	0x00fa
                    00FB     86 _CCAP1H	=	0x00fb
                    00FC     87 _CCAP2H	=	0x00fc
                    00FD     88 _CCAP3H	=	0x00fd
                    00FE     89 _CCAP4H	=	0x00fe
                    00FF     90 _ICON	=	0x00ff
                    0085     91 _CKSEL	=	0x0085
                    0086     92 _OSCCON	=	0x0086
                    00D1     93 _FCON	=	0x00d1
                    00D2     94 _EECON	=	0x00d2
                    00D3     95 _EETIM	=	0x00d3
                             96 ;--------------------------------------------------------
                             97 ; special function bits 
                             98 ;--------------------------------------------------------
                    0080     99 _P0_0	=	0x0080
                    0081    100 _P0_1	=	0x0081
                    0082    101 _P0_2	=	0x0082
                    0083    102 _P0_3	=	0x0083
                    0084    103 _P0_4	=	0x0084
                    0085    104 _P0_5	=	0x0085
                    0086    105 _P0_6	=	0x0086
                    0087    106 _P0_7	=	0x0087
                    00A7    107 _ENBOOT	=	0x00a7
                    0088    108 _IT0	=	0x0088
                    0089    109 _IE0	=	0x0089
                    008A    110 _IT1	=	0x008a
                    008B    111 _IE1	=	0x008b
                    008C    112 _TR0	=	0x008c
                    008D    113 _TF0	=	0x008d
                    008E    114 _TR1	=	0x008e
                    008F    115 _TF1	=	0x008f
                    0090    116 _P1_0	=	0x0090
                    0091    117 _P1_1	=	0x0091
                    0092    118 _P1_2	=	0x0092
                    0093    119 _P1_3	=	0x0093
                    0094    120 _P1_4	=	0x0094
                    0095    121 _P1_5	=	0x0095
                    0096    122 _P1_6	=	0x0096
                    0097    123 _P1_7	=	0x0097
                    0090    124 _T2	=	0x0090
                    0091    125 _T2EX	=	0x0091
                    0098    126 _RI	=	0x0098
                    0099    127 _TI	=	0x0099
                    009A    128 _RB8	=	0x009a
                    009B    129 _TB8	=	0x009b
                    009C    130 _REN	=	0x009c
                    009D    131 _SM2	=	0x009d
                    009E    132 _SM1	=	0x009e
                    009F    133 _SM0	=	0x009f
                    00A0    134 _P2_0	=	0x00a0
                    00A1    135 _P2_1	=	0x00a1
                    00A2    136 _P2_2	=	0x00a2
                    00A3    137 _P2_3	=	0x00a3
                    00A4    138 _P2_4	=	0x00a4
                    00A5    139 _P2_5	=	0x00a5
                    00A6    140 _P2_6	=	0x00a6
                    00A7    141 _P2_7	=	0x00a7
                    00B0    142 _P3_0	=	0x00b0
                    00B1    143 _P3_1	=	0x00b1
                    00B2    144 _P3_2	=	0x00b2
                    00B3    145 _P3_3	=	0x00b3
                    00B4    146 _P3_4	=	0x00b4
                    00B5    147 _P3_5	=	0x00b5
                    00B6    148 _P3_6	=	0x00b6
                    00B7    149 _P3_7	=	0x00b7
                    00B0    150 _RXD	=	0x00b0
                    00B1    151 _TXD	=	0x00b1
                    00B2    152 _INT0	=	0x00b2
                    00B3    153 _INT1	=	0x00b3
                    00B4    154 _T0	=	0x00b4
                    00B5    155 _T1	=	0x00b5
                    00B6    156 _WR	=	0x00b6
                    00B7    157 _RD	=	0x00b7
                    00B8    158 _PX0	=	0x00b8
                    00B9    159 _PT0	=	0x00b9
                    00BA    160 _PX1	=	0x00ba
                    00BB    161 _PT1	=	0x00bb
                    00BC    162 _PS	=	0x00bc
                    00BD    163 _PT2	=	0x00bd
                    00C8    164 _T2CON_0	=	0x00c8
                    00C9    165 _T2CON_1	=	0x00c9
                    00CA    166 _T2CON_2	=	0x00ca
                    00CB    167 _T2CON_3	=	0x00cb
                    00CC    168 _T2CON_4	=	0x00cc
                    00CD    169 _T2CON_5	=	0x00cd
                    00CE    170 _T2CON_6	=	0x00ce
                    00CF    171 _T2CON_7	=	0x00cf
                    00C8    172 _CP_RL2	=	0x00c8
                    00C9    173 _C_T2	=	0x00c9
                    00CA    174 _TR2	=	0x00ca
                    00CB    175 _EXEN2	=	0x00cb
                    00CC    176 _TCLK	=	0x00cc
                    00CD    177 _RCLK	=	0x00cd
                    00CE    178 _EXF2	=	0x00ce
                    00CF    179 _TF2	=	0x00cf
                    00D0    180 _P	=	0x00d0
                    00D1    181 _FL	=	0x00d1
                    00D2    182 _OV	=	0x00d2
                    00D3    183 _RS0	=	0x00d3
                    00D4    184 _RS1	=	0x00d4
                    00D5    185 _F0	=	0x00d5
                    00D6    186 _AC	=	0x00d6
                    00D7    187 _CY	=	0x00d7
                    00AF    188 _EA	=	0x00af
                    00AE    189 _EC	=	0x00ae
                    00AD    190 _ET2	=	0x00ad
                    00AC    191 _ES	=	0x00ac
                    00AB    192 _ET1	=	0x00ab
                    00AA    193 _EX1	=	0x00aa
                    00A9    194 _ET0	=	0x00a9
                    00A8    195 _EX0	=	0x00a8
                    00DF    196 _CF	=	0x00df
                    00DE    197 _CR	=	0x00de
                    00DC    198 _CCF4	=	0x00dc
                    00DB    199 _CCF3	=	0x00db
                    00DA    200 _CCF2	=	0x00da
                    00D9    201 _CCF1	=	0x00d9
                    00D8    202 _CCF0	=	0x00d8
                            203 ;--------------------------------------------------------
                            204 ; overlayable register banks 
                            205 ;--------------------------------------------------------
                            206 	.area REG_BANK_0	(REL,OVR,DATA)
   0000                     207 	.ds 8
                            208 ;--------------------------------------------------------
                            209 ; internal ram data
                            210 ;--------------------------------------------------------
                            211 	.area DSEG    (DATA)
   0000                     212 _T1_count::
   0000                     213 	.ds 2
   0002                     214 _T2_count::
   0002                     215 	.ds 2
   0004                     216 _blink_counter::
   0004                     217 	.ds 1
   0005                     218 _delay_counter::
   0005                     219 	.ds 1
   0006                     220 _timer0_interrupt_counter_1_1:
   0006                     221 	.ds 1
                            222 ;--------------------------------------------------------
                            223 ; overlayable items in internal ram 
                            224 ;--------------------------------------------------------
                            225 	.area OSEG    (OVR,DATA)
                            226 ;--------------------------------------------------------
                            227 ; indirectly addressable internal ram data
                            228 ;--------------------------------------------------------
                            229 	.area ISEG    (DATA)
                            230 ;--------------------------------------------------------
                            231 ; bit data
                            232 ;--------------------------------------------------------
                            233 	.area BSEG    (BIT)
                            234 ;--------------------------------------------------------
                            235 ; external ram data
                            236 ;--------------------------------------------------------
                            237 	.area XSEG    (XDATA)
   0000                     238 _kb:
   0000                     239 	.ds 3
                            240 ;--------------------------------------------------------
                            241 ; external initialized ram data
                            242 ;--------------------------------------------------------
                            243 	.area XISEG   (XDATA)
                            244 ;--------------------------------------------------------
                            245 ; global & static initialisations
                            246 ;--------------------------------------------------------
                            247 	.area GSINIT  (CODE)
                            248 	.area GSFINAL (CODE)
                            249 	.area GSINIT  (CODE)
                            250 ;------------------------------------------------------------
                            251 ;Allocation info for local variables in function 'timer0_interrupt'
                            252 ;------------------------------------------------------------
                            253 ;input_value               Allocated to registers r3 
                            254 ;key_code                  Allocated to registers r4 
                            255 ;empty                     Allocated to registers r2 
                            256 ;counter                   Allocated with name '_timer0_interrupt_counter_1_1'
                            257 ;------------------------------------------------------------
                            258 ;src/keypad.c:347: static unsigned char counter = 0;
                            259 ;     genAssign
   0000 75*06 00            260 	mov	_timer0_interrupt_counter_1_1,#0x00
                            261 ;src/keypad.c:16: unsigned int T1_count=0;
                            262 ;     genAssign
   0003 E4                  263 	clr	a
   0004 F5*01               264 	mov	(_T1_count + 1),a
   0006 F5*00               265 	mov	_T1_count,a
                            266 ;src/keypad.c:17: unsigned int T2_count=0;
                            267 ;     genAssign
   0008 E4                  268 	clr	a
   0009 F5*03               269 	mov	(_T2_count + 1),a
   000B F5*02               270 	mov	_T2_count,a
                            271 ;src/keypad.c:25: volatile unsigned char blink_counter = 0;
                            272 ;     genAssign
   000D 75*04 00            273 	mov	_blink_counter,#0x00
                            274 ;src/keypad.c:26: volatile unsigned char delay_counter = 0;
                            275 ;     genAssign
   0010 75*05 00            276 	mov	_delay_counter,#0x00
                            277 ;--------------------------------------------------------
                            278 ; Home
                            279 ;--------------------------------------------------------
                            280 	.area HOME    (CODE)
                            281 	.area CSEG    (CODE)
                            282 ;--------------------------------------------------------
                            283 ; code
                            284 ;--------------------------------------------------------
                            285 	.area CSEG    (CODE)
                            286 ;------------------------------------------------------------
                            287 ;Allocation info for local variables in function 'find_mapping_code'
                            288 ;------------------------------------------------------------
                            289 ;scan_code                 Allocated to stack - offset 1
                            290 ;result                    Allocated to registers r3 
                            291 ;stop                      Allocated to stack - offset 2
                            292 ;i                         Allocated to stack - offset 3
                            293 ;------------------------------------------------------------
                            294 ;src/keypad.c:54: unsigned char find_mapping_code(const unsigned char scan_code)
                            295 ;	-----------------------------------------
                            296 ;	 function find_mapping_code
                            297 ;	-----------------------------------------
   0000                     298 _find_mapping_code:
                    0002    299 	ar2 = 0x02
                    0003    300 	ar3 = 0x03
                    0004    301 	ar4 = 0x04
                    0005    302 	ar5 = 0x05
                    0006    303 	ar6 = 0x06
                    0007    304 	ar7 = 0x07
                    0000    305 	ar0 = 0x00
                    0001    306 	ar1 = 0x01
   0000 C0*00               307 	push	_bp
   0002 85 81*00            308 	mov	_bp,sp
   0005 05 81               309 	inc	sp
   0007 05 81               310 	inc	sp
   0009 05 81               311 	inc	sp
                            312 ;     genReceive
   000B C0 E0               313 	push	acc
                            314 ;       Peephole 212    reduced add sequence to inc
   000D A8*00               315 	mov     r0,_bp
   000F 08                  316 	inc     r0
   0010 D0 E0               317 	pop	acc
   0012 A6 82               318 	mov	@r0,dpl
                            319 ;src/keypad.c:56: unsigned char result = 0;
                            320 ;     genAssign
   0014 7B 00               321 	mov	r3,#0x00
                            322 ;src/keypad.c:57: unsigned char stop = 0;
                            323 ;     genAssign
   0016 E5*00               324 	mov	a,_bp
   0018 24 02               325 	add	a,#0x02
   001A F8                  326 	mov	r0,a
   001B 76 00               327 	mov	@r0,#0x00
                            328 ;src/keypad.c:60: for (i=0; i<255, stop==0; i++)
                            329 ;     genAssign
   001D E5*00               330 	mov	a,_bp
   001F 24 03               331 	add	a,#0x03
   0021 F8                  332 	mov	r0,a
   0022 76 00               333 	mov	@r0,#0x00
   0024                     334 00106$:
                            335 ;     genCmpEq
   0024 E5*00               336 	mov	a,_bp
   0026 24 02               337 	add	a,#0x02
   0028 F8                  338 	mov	r0,a
   0029 B6 00 02            339 	cjne	@r0,#0x00,00117$
   002C 80 03               340 	sjmp	00118$
   002E                     341 00117$:
   002E 02s00rCC            342 	ljmp	00109$
   0031                     343 00118$:
                            344 ;src/keypad.c:62: if ( mappingTable[i].scan == scan_code )
                            345 ;     genIpush
   0031 C0 03               346 	push	ar3
                            347 ;     genMult
   0033 E5*00               348 	mov	a,_bp
   0035 24 03               349 	add	a,#0x03
   0037 F8                  350 	mov	r0,a
                            351 ;     genMultOneByte
   0038 E6                  352 	mov	a,@r0
   0039 75 F0 07            353 	mov	b,#0x07
   003C A4                  354 	mul	ab
                            355 ;     genPlus
   003D 24r43               356 	add	a,#_mappingTable
   003F FE                  357 	mov	r6,a
   0040 E5 F0               358 	mov	a,b
   0042 34s08               359 	addc	a,#(_mappingTable >> 8)
   0044 FF                  360 	mov	r7,a
                            361 ;     genPointerGet
                            362 ;     genCodePointerGet
   0045 8E 82               363 	mov	dpl,r6
   0047 8F 83               364 	mov	dph,r7
                            365 ;       Peephole 181    changed mov to clr
   0049 E4                  366 	clr     a
   004A 93                  367 	movc	a,@a+dptr
   004B FB                  368 	mov	r3,a
   004C 74 01               369 	mov	a,#0x01
   004E 93                  370 	movc	a,@a+dptr
   004F FC                  371 	mov	r4,a
                            372 ;     genCast
                            373 ;       Peephole 212    reduced add sequence to inc
   0050 A8*00               374 	mov     r0,_bp
   0052 08                  375 	inc     r0
   0053 86 02               376 	mov	ar2,@r0
   0055 7D 00               377 	mov	r5,#0x00
                            378 ;     genCmpEq
   0057 EB                  379 	mov	a,r3
   0058 B5 02 08            380 	cjne	a,ar2,00119$
   005B EC                  381 	mov	a,r4
   005C B5 05 04            382 	cjne	a,ar5,00119$
   005F 74 01               383 	mov	a,#0x01
   0061 80 01               384 	sjmp	00120$
   0063                     385 00119$:
   0063 E4                  386 	clr	a
   0064                     387 00120$:
                            388 ;     genIpop
   0064 D0 03               389 	pop	ar3
                            390 ;     genIfx
                            391 ;     genIfxJump
                            392 ;       Peephole 110    removed ljmp by inverse jump logic
   0066 60 19               393 	jz      00102$
   0068                     394 00121$:
                            395 ;src/keypad.c:64: result = mappingTable[i].normalized;
                            396 ;     genPlus
                            397 ;     genPlusIncr
   0068 74 02               398 	mov	a,#0x02
                            399 ;       Peephole 236.a  used r6 instead of ar6
   006A 2E                  400 	add     a,r6
   006B F5 82               401 	mov	dpl,a
                            402 ;       Peephole 181    changed mov to clr
   006D E4                  403 	clr     a
                            404 ;       Peephole 236.b  used r7 instead of ar7
   006E 3F                  405 	addc    a,r7
   006F F5 83               406 	mov	dph,a
                            407 ;     genPointerGet
                            408 ;     genCodePointerGet
                            409 ;       Peephole 181    changed mov to clr
   0071 E4                  410 	clr     a
   0072 93                  411 	movc	a,@a+dptr
   0073 FA                  412 	mov	r2,a
   0074 74 01               413 	mov	a,#0x01
   0076 93                  414 	movc	a,@a+dptr
   0077 FC                  415 	mov	r4,a
                            416 ;     genCast
   0078 8A 03               417 	mov	ar3,r2
                            418 ;src/keypad.c:65: stop = 1;
                            419 ;     genAssign
   007A E5*00               420 	mov	a,_bp
   007C 24 02               421 	add	a,#0x02
   007E F8                  422 	mov	r0,a
   007F 76 01               423 	mov	@r0,#0x01
   0081                     424 00102$:
                            425 ;src/keypad.c:68: if ( (mappingTable[i].scan == 0) && 
                            426 ;     genMult
   0081 E5*00               427 	mov	a,_bp
   0083 24 03               428 	add	a,#0x03
   0085 F8                  429 	mov	r0,a
                            430 ;     genMultOneByte
   0086 E6                  431 	mov	a,@r0
   0087 75 F0 07            432 	mov	b,#0x07
   008A A4                  433 	mul	ab
                            434 ;     genPlus
   008B 24r43               435 	add	a,#_mappingTable
   008D FA                  436 	mov	r2,a
   008E E5 F0               437 	mov	a,b
   0090 34s08               438 	addc	a,#(_mappingTable >> 8)
   0092 FC                  439 	mov	r4,a
                            440 ;     genPointerGet
                            441 ;     genCodePointerGet
   0093 8A 82               442 	mov	dpl,r2
   0095 8C 83               443 	mov	dph,r4
                            444 ;       Peephole 181    changed mov to clr
   0097 E4                  445 	clr     a
   0098 93                  446 	movc	a,@a+dptr
   0099 FD                  447 	mov	r5,a
   009A 74 01               448 	mov	a,#0x01
   009C 93                  449 	movc	a,@a+dptr
   009D FE                  450 	mov	r6,a
                            451 ;     genCmpEq
                            452 ;       Peephole 112.b  changed ljmp to sjmp
                            453 ;       Peephole 198    optimized misc jump sequence
   009E BD 00 22            454 	cjne    r5,#0x00,00108$
   00A1 BE 00 1F            455 	cjne    r6,#0x00,00108$
                            456 ;00122$:
                            457 ;       Peephole 200    removed redundant sjmp
   00A4                     458 00123$:
                            459 ;src/keypad.c:69: (mappingTable[i].normalized == 0) )
                            460 ;     genPlus
                            461 ;     genPlusIncr
   00A4 74 02               462 	mov	a,#0x02
                            463 ;       Peephole 236.a  used r2 instead of ar2
   00A6 2A                  464 	add     a,r2
   00A7 F5 82               465 	mov	dpl,a
                            466 ;       Peephole 181    changed mov to clr
   00A9 E4                  467 	clr     a
                            468 ;       Peephole 236.b  used r4 instead of ar4
   00AA 3C                  469 	addc    a,r4
   00AB F5 83               470 	mov	dph,a
                            471 ;     genPointerGet
                            472 ;     genCodePointerGet
                            473 ;       Peephole 181    changed mov to clr
   00AD E4                  474 	clr     a
   00AE 93                  475 	movc	a,@a+dptr
   00AF FA                  476 	mov	r2,a
   00B0 74 01               477 	mov	a,#0x01
   00B2 93                  478 	movc	a,@a+dptr
   00B3 FC                  479 	mov	r4,a
                            480 ;     genCmpEq
                            481 ;       Peephole 112.b  changed ljmp to sjmp
                            482 ;       Peephole 198    optimized misc jump sequence
   00B4 BA 00 0C            483 	cjne    r2,#0x00,00108$
   00B7 BC 00 09            484 	cjne    r4,#0x00,00108$
                            485 ;00124$:
                            486 ;       Peephole 200    removed redundant sjmp
   00BA                     487 00125$:
                            488 ;src/keypad.c:71: stop = 1;
                            489 ;     genAssign
   00BA E5*00               490 	mov	a,_bp
   00BC 24 02               491 	add	a,#0x02
   00BE F8                  492 	mov	r0,a
   00BF 76 01               493 	mov	@r0,#0x01
                            494 ;src/keypad.c:72: result = SCAN_ERROR;
                            495 ;     genAssign
   00C1 7B 92               496 	mov	r3,#0x92
   00C3                     497 00108$:
                            498 ;src/keypad.c:60: for (i=0; i<255, stop==0; i++)
                            499 ;     genPlus
   00C3 E5*00               500 	mov	a,_bp
   00C5 24 03               501 	add	a,#0x03
   00C7 F8                  502 	mov	r0,a
                            503 ;     genPlusIncr
   00C8 06                  504 	inc	@r0
   00C9 02s00r24            505 	ljmp	00106$
   00CC                     506 00109$:
                            507 ;src/keypad.c:77: return result;
                            508 ;     genRet
   00CC 8B 82               509 	mov	dpl,r3
   00CE                     510 00110$:
   00CE 85*00 81            511 	mov	sp,_bp
   00D1 D0*00               512 	pop	_bp
   00D3 22                  513 	ret
                            514 ;------------------------------------------------------------
                            515 ;Allocation info for local variables in function 'keypad_init'
                            516 ;------------------------------------------------------------
                            517 ;------------------------------------------------------------
                            518 ;src/keypad.c:85: void keypad_init (void)
                            519 ;	-----------------------------------------
                            520 ;	 function keypad_init
                            521 ;	-----------------------------------------
   00D4                     522 _keypad_init:
   00D4 C0*00               523 	push	_bp
   00D6 85 81*00            524 	mov	_bp,sp
                            525 ;src/keypad.c:87: kb.last_code = BUFFER_EMPTY;
                            526 ;     genPointerSet
                            527 ;     genFarPointerSet
   00D9 90s00r00            528 	mov	dptr,#_kb
   00DC 74 90               529 	mov	a,#0x90
   00DE F0                  530 	movx	@dptr,a
                            531 ;src/keypad.c:88: kb.status = BUFFER_EMPTY;
                            532 ;     genPointerSet
                            533 ;     genFarPointerSet
   00DF 90s00r01            534 	mov	dptr,#(_kb + 0x0001)
   00E2 74 90               535 	mov	a,#0x90
   00E4 F0                  536 	movx	@dptr,a
                            537 ;src/keypad.c:91: ENABLE_T0_INTERRUPT;
                            538 ;     genAssign
   00E5 D2 A9               539 	setb	_ET0
                            540 ;src/keypad.c:92: KEYPAD_START;
                            541 ;     genAssign
   00E7 D2 8C               542 	setb	_TR0
   00E9                     543 00101$:
   00E9 85*00 81            544 	mov	sp,_bp
   00EC D0*00               545 	pop	_bp
   00EE 22                  546 	ret
                            547 ;------------------------------------------------------------
                            548 ;Allocation info for local variables in function 'keypad_pop_front'
                            549 ;------------------------------------------------------------
                            550 ;------------------------------------------------------------
                            551 ;src/keypad.c:95: unsigned char keypad_pop_front(void)
                            552 ;	-----------------------------------------
                            553 ;	 function keypad_pop_front
                            554 ;	-----------------------------------------
   00EF                     555 _keypad_pop_front:
   00EF C0*00               556 	push	_bp
   00F1 85 81*00            557 	mov	_bp,sp
                            558 ;src/keypad.c:97: return kb.buffer;
                            559 ;     genPointerGet
                            560 ;     genFarPointerGet
   00F4 90s00r02            561 	mov	dptr,#(_kb + 0x0002)
   00F7 E0                  562 	movx	a,@dptr
                            563 ;     genRet
                            564 ;       Peephole 244.c  loading dpl from a instead of r2
   00F8 FA                  565 	mov	r2,a
   00F9 F5 82               566 	mov	dpl,a
   00FB                     567 00101$:
   00FB 85*00 81            568 	mov	sp,_bp
   00FE D0*00               569 	pop	_bp
   0100 22                  570 	ret
                            571 ;------------------------------------------------------------
                            572 ;Allocation info for local variables in function 'keypad_check_front'
                            573 ;------------------------------------------------------------
                            574 ;------------------------------------------------------------
                            575 ;src/keypad.c:100: unsigned char keypad_check_front(void)
                            576 ;	-----------------------------------------
                            577 ;	 function keypad_check_front
                            578 ;	-----------------------------------------
   0101                     579 _keypad_check_front:
   0101 C0*00               580 	push	_bp
   0103 85 81*00            581 	mov	_bp,sp
                            582 ;src/keypad.c:102: return kb.status;
                            583 ;     genPointerGet
                            584 ;     genFarPointerGet
   0106 90s00r01            585 	mov	dptr,#(_kb + 0x0001)
   0109 E0                  586 	movx	a,@dptr
                            587 ;     genRet
                            588 ;       Peephole 244.c  loading dpl from a instead of r2
   010A FA                  589 	mov	r2,a
   010B F5 82               590 	mov	dpl,a
   010D                     591 00101$:
   010D 85*00 81            592 	mov	sp,_bp
   0110 D0*00               593 	pop	_bp
   0112 22                  594 	ret
                            595 ;------------------------------------------------------------
                            596 ;Allocation info for local variables in function 'keypad_purge_buffer'
                            597 ;------------------------------------------------------------
                            598 ;------------------------------------------------------------
                            599 ;src/keypad.c:105: void keypad_purge_buffer(void)
                            600 ;	-----------------------------------------
                            601 ;	 function keypad_purge_buffer
                            602 ;	-----------------------------------------
   0113                     603 _keypad_purge_buffer:
   0113 C0*00               604 	push	_bp
   0115 85 81*00            605 	mov	_bp,sp
                            606 ;src/keypad.c:107: kb.status = BUFFER_EMPTY;
                            607 ;     genPointerSet
                            608 ;     genFarPointerSet
   0118 90s00r01            609 	mov	dptr,#(_kb + 0x0001)
   011B 74 90               610 	mov	a,#0x90
   011D F0                  611 	movx	@dptr,a
   011E                     612 00101$:
   011E 85*00 81            613 	mov	sp,_bp
   0121 D0*00               614 	pop	_bp
   0123 22                  615 	ret
                            616 ;------------------------------------------------------------
                            617 ;Allocation info for local variables in function 'keypad_get_last_code'
                            618 ;------------------------------------------------------------
                            619 ;------------------------------------------------------------
                            620 ;src/keypad.c:110: unsigned char keypad_get_last_code(void)
                            621 ;	-----------------------------------------
                            622 ;	 function keypad_get_last_code
                            623 ;	-----------------------------------------
   0124                     624 _keypad_get_last_code:
   0124 C0*00               625 	push	_bp
   0126 85 81*00            626 	mov	_bp,sp
                            627 ;src/keypad.c:112: return kb.last_code;
                            628 ;     genPointerGet
                            629 ;     genFarPointerGet
   0129 90s00r00            630 	mov	dptr,#_kb
   012C E0                  631 	movx	a,@dptr
                            632 ;     genRet
                            633 ;       Peephole 244.c  loading dpl from a instead of r2
   012D FA                  634 	mov	r2,a
   012E F5 82               635 	mov	dpl,a
   0130                     636 00101$:
   0130 85*00 81            637 	mov	sp,_bp
   0133 D0*00               638 	pop	_bp
   0135 22                  639 	ret
                            640 ;------------------------------------------------------------
                            641 ;Allocation info for local variables in function 'read_zone_temp_1'
                            642 ;------------------------------------------------------------
                            643 ;result                    Allocated to registers r2 r3 
                            644 ;------------------------------------------------------------
                            645 ;src/keypad.c:115: unsigned int read_zone_temp_1()
                            646 ;	-----------------------------------------
                            647 ;	 function read_zone_temp_1
                            648 ;	-----------------------------------------
   0136                     649 _read_zone_temp_1:
   0136 C0*00               650 	push	_bp
   0138 85 81*00            651 	mov	_bp,sp
                            652 ;src/keypad.c:117: unsigned int result = 0;
                            653 ;     genAssign
   013B 7A 00               654 	mov	r2,#0x00
                            655 ;src/keypad.c:119: T1_count=0;
                            656 ;     genAssign
                            657 ;       Peephole 3.b    changed mov to clr
   013D E4                  658 	clr     a
   013E FB                  659 	mov     r3,a
   013F F5*01               660 	mov	(_T1_count + 1),a
   0141 F5*00               661 	mov	_T1_count,a
                            662 ;src/keypad.c:120: T2_count=0;
                            663 ;     genAssign
   0143 E4                  664 	clr	a
   0144 F5*03               665 	mov	(_T2_count + 1),a
   0146 F5*02               666 	mov	_T2_count,a
                            667 ;src/keypad.c:123: while( SENSOR_ZONE_1 )
   0148                     668 00103$:
                            669 ;     genIfx
                            670 ;     genIfxJump
                            671 ;       Peephole 111    removed ljmp by inverse jump logic
   0148 30 94 17            672 	jnb     _P1_4,00108$
   014B                     673 00138$:
                            674 ;src/keypad.c:125: if (++T2_count == 0x8000)
                            675 ;     genPlus
                            676 ;     genPlusIncr
   014B 05*02               677 	inc	_T2_count
   014D E4                  678 	clr	a
   014E B5*02 02            679 	cjne	a,_T2_count,00139$
   0151 05*03               680 	inc	(_T2_count + 1)
   0153                     681 00139$:
                            682 ;     genCmpEq
   0153 E5*02               683 	mov	a,_T2_count
                            684 ;       Peephole 112.b  changed ljmp to sjmp
                            685 ;       Peephole 197.a  optimized misc jump sequence
   0155 70 F1               686 	jnz     00103$
   0157 E5*03               687 	mov     a,(_T2_count + 1)
   0159 B4 80 EC            688 	cjne    a,#0x80,00103$
                            689 ;00140$:     
                            690 ;       Peephole 200    removed redundant sjmp
   015C                     691 00141$:
                            692 ;src/keypad.c:126: return 0;
                            693 ;     genRet
                            694 ;       Peephole 182.b  used 16 bit load of dptr
   015C 90 00 00            695 	mov     dptr,#0x0000
   015F 02s02r27            696 	ljmp	00123$
                            697 ;src/keypad.c:130: while( !SENSOR_ZONE_1 )
   0162                     698 00108$:
                            699 ;     genIfx
                            700 ;     genIfxJump
                            701 ;       Peephole 112.a  removed ljmp by inverse jump logic
   0162 20 94 17            702 	jb      _P1_4,00110$
   0165                     703 00142$:
                            704 ;src/keypad.c:132: if (++T2_count == 0x8000)
                            705 ;     genPlus
                            706 ;     genPlusIncr
   0165 05*02               707 	inc	_T2_count
   0167 E4                  708 	clr	a
   0168 B5*02 02            709 	cjne	a,_T2_count,00143$
   016B 05*03               710 	inc	(_T2_count + 1)
   016D                     711 00143$:
                            712 ;     genCmpEq
   016D E5*02               713 	mov	a,_T2_count
                            714 ;       Peephole 112.b  changed ljmp to sjmp
                            715 ;       Peephole 197.a  optimized misc jump sequence
   016F 70 F1               716 	jnz     00108$
   0171 E5*03               717 	mov     a,(_T2_count + 1)
   0173 B4 80 EC            718 	cjne    a,#0x80,00108$
                            719 ;00144$:     
                            720 ;       Peephole 200    removed redundant sjmp
   0176                     721 00145$:
                            722 ;src/keypad.c:133: return 0;
                            723 ;     genRet
                            724 ;       Peephole 182.b  used 16 bit load of dptr
   0176 90 00 00            725 	mov     dptr,#0x0000
   0179 02s02r27            726 	ljmp	00123$
   017C                     727 00110$:
                            728 ;src/keypad.c:136: T1_count=0;
                            729 ;     genAssign
   017C E4                  730 	clr	a
   017D F5*01               731 	mov	(_T1_count + 1),a
   017F F5*00               732 	mov	_T1_count,a
                            733 ;src/keypad.c:137: T2_count=0;
                            734 ;     genAssign
   0181 E4                  735 	clr	a
   0182 F5*03               736 	mov	(_T2_count + 1),a
   0184 F5*02               737 	mov	_T2_count,a
                            738 ;src/keypad.c:140: while( SENSOR_ZONE_1 )
   0186                     739 00113$:
                            740 ;     genIfx
                            741 ;     genIfxJump
                            742 ;       Peephole 111    removed ljmp by inverse jump logic
   0186 30 94 17            743 	jnb     _P1_4,00118$
   0189                     744 00146$:
                            745 ;src/keypad.c:143: T1_count++;
                            746 ;     genPlus
                            747 ;     genPlusIncr
   0189 05*00               748 	inc	_T1_count
   018B E4                  749 	clr	a
   018C B5*00 02            750 	cjne	a,_T1_count,00147$
   018F 05*01               751 	inc	(_T1_count + 1)
   0191                     752 00147$:
                            753 ;src/keypad.c:144: if (T1_count == 0x8000)
                            754 ;     genCmpEq
   0191 E5*00               755 	mov	a,_T1_count
                            756 ;       Peephole 112.b  changed ljmp to sjmp
                            757 ;       Peephole 197.a  optimized misc jump sequence
   0193 70 F1               758 	jnz     00113$
   0195 E5*01               759 	mov     a,(_T1_count + 1)
   0197 B4 80 EC            760 	cjne    a,#0x80,00113$
                            761 ;00148$:     
                            762 ;       Peephole 200    removed redundant sjmp
   019A                     763 00149$:
                            764 ;src/keypad.c:145: return 0;
                            765 ;     genRet
                            766 ;       Peephole 182.b  used 16 bit load of dptr
   019A 90 00 00            767 	mov     dptr,#0x0000
   019D 02s02r27            768 	ljmp	00123$
                            769 ;src/keypad.c:149: while( !SENSOR_ZONE_1 )
   01A0                     770 00118$:
                            771 ;     genIfx
                            772 ;     genIfxJump
                            773 ;       Peephole 112.a  removed ljmp by inverse jump logic
   01A0 20 94 16            774 	jb      _P1_4,00120$
   01A3                     775 00150$:
                            776 ;src/keypad.c:151: T2_count++;
                            777 ;     genPlus
                            778 ;     genPlusIncr
   01A3 05*02               779 	inc	_T2_count
   01A5 E4                  780 	clr	a
   01A6 B5*02 02            781 	cjne	a,_T2_count,00151$
   01A9 05*03               782 	inc	(_T2_count + 1)
   01AB                     783 00151$:
                            784 ;src/keypad.c:152: if (T2_count == 0x8000)
                            785 ;     genCmpEq
   01AB E5*02               786 	mov	a,_T2_count
                            787 ;       Peephole 112.b  changed ljmp to sjmp
                            788 ;       Peephole 197.a  optimized misc jump sequence
   01AD 70 F1               789 	jnz     00118$
   01AF E5*03               790 	mov     a,(_T2_count + 1)
   01B1 B4 80 EC            791 	cjne    a,#0x80,00118$
                            792 ;00152$:     
                            793 ;       Peephole 200    removed redundant sjmp
   01B4                     794 00153$:
                            795 ;src/keypad.c:153: return 0;
                            796 ;     genRet
                            797 ;       Peephole 182.b  used 16 bit load of dptr
   01B4 90 00 00            798 	mov     dptr,#0x0000
                            799 ;       Peephole 112.b  changed ljmp to sjmp
   01B7 80 6E               800 	sjmp    00123$
   01B9                     801 00120$:
                            802 ;src/keypad.c:156: if (T2_count != 0)
                            803 ;     genCmpEq
   01B9 E5*02               804 	mov	a,_T2_count
   01BB 70 04               805 	jnz	00154$
   01BD E5*03               806 	mov	a,(_T2_count + 1)
                            807 ;       Peephole 110    removed ljmp by inverse jump logic
   01BF 60 62               808 	jz      00122$
   01C1                     809 00154$:
                            810 ;src/keypad.c:164: result = (unsigned int)235L-((400L*T1_count)/T2_count);
                            811 ;     genCast
   01C1 AC*00               812 	mov	r4,_T1_count
   01C3 AD*01               813 	mov	r5,(_T1_count + 1)
   01C5 7E 00               814 	mov	r6,#0x00
   01C7 7F 00               815 	mov	r7,#0x00
                            816 ;     genAssign
   01C9 75*00 90            817 	mov	__mullong_PARM_2,#0x90
   01CC 75*01 01            818 	mov	(__mullong_PARM_2 + 1),#0x01
   01CF 75*02 00            819 	mov	(__mullong_PARM_2 + 2),#0x00
   01D2 75*03 00            820 	mov	(__mullong_PARM_2 + 3),#0x00
                            821 ;     genCall
   01D5 8C 82               822 	mov	dpl,r4
   01D7 8D 83               823 	mov	dph,r5
   01D9 8E F0               824 	mov	b,r6
   01DB EF                  825 	mov	a,r7
   01DC 12s00r00            826 	lcall	__mullong
                            827 ;     genCast
                            828 ;     genCall
   01DF AC 82               829 	mov     r4,dpl
   01E1 AD 83               830 	mov     r5,dph
   01E3 AE F0               831 	mov     r6,b
   01E5 FF                  832 	mov     r7,a
   01E6 85*02*00            833 	mov     __divslong_PARM_2,_T2_count
   01E9 85*03*01            834 	mov     (__divslong_PARM_2 + 1),(_T2_count + 1)
   01EC 75*02 00            835 	mov     (__divslong_PARM_2 + 2),#0x00
   01EF 75*03 00            836 	mov     (__divslong_PARM_2 + 3),#0x00
                            837 ;       Peephole 238.a  removed 4 redundant moves
   01F2 12s00r00            838 	lcall	__divslong
   01F5 AC 82               839 	mov	r4,dpl
   01F7 AD 83               840 	mov	r5,dph
   01F9 AE F0               841 	mov	r6,b
   01FB FF                  842 	mov	r7,a
                            843 ;     genMinus
   01FC 74 EB               844 	mov	a,#0xEB
   01FE C3                  845 	clr	c
                            846 ;       Peephole 236.l  used r4 instead of ar4
   01FF 9C                  847 	subb    a,r4
   0200 FC                  848 	mov	r4,a
                            849 ;       Peephole 181    changed mov to clr
   0201 E4                  850 	clr     a
                            851 ;       Peephole 236.l  used r5 instead of ar5
   0202 9D                  852 	subb    a,r5
   0203 FD                  853 	mov	r5,a
                            854 ;       Peephole 181    changed mov to clr
   0204 E4                  855 	clr     a
                            856 ;       Peephole 236.l  used r6 instead of ar6
   0205 9E                  857 	subb    a,r6
   0206 FE                  858 	mov	r6,a
                            859 ;       Peephole 181    changed mov to clr
   0207 E4                  860 	clr     a
                            861 ;       Peephole 236.l  used r7 instead of ar7
   0208 9F                  862 	subb    a,r7
   0209 FF                  863 	mov	r7,a
                            864 ;     genCast
   020A 8C 02               865 	mov	ar2,r4
   020C 8D 03               866 	mov	ar3,r5
                            867 ;src/keypad.c:165: result *= 10;
                            868 ;     genAssign
   020E E4                  869 	clr	a
   020F F5*01               870 	mov	(__mulint_PARM_2 + 1),a
   0211 75*00 0A            871 	mov	__mulint_PARM_2,#0x0A
                            872 ;     genCall
   0214 8A 82               873 	mov	dpl,r2
   0216 8B 83               874 	mov	dph,r3
   0218 12s00r00            875 	lcall	__mulint
   021B AC 82               876 	mov	r4,dpl
   021D AD 83               877 	mov	r5,dph
                            878 ;     genAssign
   021F 8C 02               879 	mov	ar2,r4
   0221 8D 03               880 	mov	ar3,r5
   0223                     881 00122$:
                            882 ;src/keypad.c:168: return result;
                            883 ;     genRet
   0223 8A 82               884 	mov	dpl,r2
   0225 8B 83               885 	mov	dph,r3
   0227                     886 00123$:
   0227 85*00 81            887 	mov	sp,_bp
   022A D0*00               888 	pop	_bp
   022C 22                  889 	ret
                            890 ;------------------------------------------------------------
                            891 ;Allocation info for local variables in function 'read_zone_temp_2'
                            892 ;------------------------------------------------------------
                            893 ;result                    Allocated to registers r2 r3 
                            894 ;------------------------------------------------------------
                            895 ;src/keypad.c:171: unsigned int read_zone_temp_2()
                            896 ;	-----------------------------------------
                            897 ;	 function read_zone_temp_2
                            898 ;	-----------------------------------------
   022D                     899 _read_zone_temp_2:
   022D C0*00               900 	push	_bp
   022F 85 81*00            901 	mov	_bp,sp
                            902 ;src/keypad.c:173: unsigned int result = 0;
                            903 ;     genAssign
   0232 7A 00               904 	mov	r2,#0x00
                            905 ;src/keypad.c:175: T1_count=0;
                            906 ;     genAssign
                            907 ;       Peephole 3.b    changed mov to clr
   0234 E4                  908 	clr     a
   0235 FB                  909 	mov     r3,a
   0236 F5*01               910 	mov	(_T1_count + 1),a
   0238 F5*00               911 	mov	_T1_count,a
                            912 ;src/keypad.c:176: T2_count=0;
                            913 ;     genAssign
   023A E4                  914 	clr	a
   023B F5*03               915 	mov	(_T2_count + 1),a
   023D F5*02               916 	mov	_T2_count,a
                            917 ;src/keypad.c:179: while( SENSOR_ZONE_2 )
   023F                     918 00103$:
                            919 ;     genIfx
                            920 ;     genIfxJump
                            921 ;       Peephole 111    removed ljmp by inverse jump logic
   023F 30 93 17            922 	jnb     _P1_3,00108$
   0242                     923 00138$:
                            924 ;src/keypad.c:181: if (++T2_count == 0x8000)
                            925 ;     genPlus
                            926 ;     genPlusIncr
   0242 05*02               927 	inc	_T2_count
   0244 E4                  928 	clr	a
   0245 B5*02 02            929 	cjne	a,_T2_count,00139$
   0248 05*03               930 	inc	(_T2_count + 1)
   024A                     931 00139$:
                            932 ;     genCmpEq
   024A E5*02               933 	mov	a,_T2_count
                            934 ;       Peephole 112.b  changed ljmp to sjmp
                            935 ;       Peephole 197.a  optimized misc jump sequence
   024C 70 F1               936 	jnz     00103$
   024E E5*03               937 	mov     a,(_T2_count + 1)
   0250 B4 80 EC            938 	cjne    a,#0x80,00103$
                            939 ;00140$:     
                            940 ;       Peephole 200    removed redundant sjmp
   0253                     941 00141$:
                            942 ;src/keypad.c:182: return 0;
                            943 ;     genRet
                            944 ;       Peephole 182.b  used 16 bit load of dptr
   0253 90 00 00            945 	mov     dptr,#0x0000
   0256 02s03r1E            946 	ljmp	00123$
                            947 ;src/keypad.c:186: while( !SENSOR_ZONE_2 )
   0259                     948 00108$:
                            949 ;     genIfx
                            950 ;     genIfxJump
                            951 ;       Peephole 112.a  removed ljmp by inverse jump logic
   0259 20 93 17            952 	jb      _P1_3,00110$
   025C                     953 00142$:
                            954 ;src/keypad.c:188: if (++T2_count == 0x8000)
                            955 ;     genPlus
                            956 ;     genPlusIncr
   025C 05*02               957 	inc	_T2_count
   025E E4                  958 	clr	a
   025F B5*02 02            959 	cjne	a,_T2_count,00143$
   0262 05*03               960 	inc	(_T2_count + 1)
   0264                     961 00143$:
                            962 ;     genCmpEq
   0264 E5*02               963 	mov	a,_T2_count
                            964 ;       Peephole 112.b  changed ljmp to sjmp
                            965 ;       Peephole 197.a  optimized misc jump sequence
   0266 70 F1               966 	jnz     00108$
   0268 E5*03               967 	mov     a,(_T2_count + 1)
   026A B4 80 EC            968 	cjne    a,#0x80,00108$
                            969 ;00144$:     
                            970 ;       Peephole 200    removed redundant sjmp
   026D                     971 00145$:
                            972 ;src/keypad.c:189: return 0;
                            973 ;     genRet
                            974 ;       Peephole 182.b  used 16 bit load of dptr
   026D 90 00 00            975 	mov     dptr,#0x0000
   0270 02s03r1E            976 	ljmp	00123$
   0273                     977 00110$:
                            978 ;src/keypad.c:192: T1_count=0;
                            979 ;     genAssign
   0273 E4                  980 	clr	a
   0274 F5*01               981 	mov	(_T1_count + 1),a
   0276 F5*00               982 	mov	_T1_count,a
                            983 ;src/keypad.c:193: T2_count=0;
                            984 ;     genAssign
   0278 E4                  985 	clr	a
   0279 F5*03               986 	mov	(_T2_count + 1),a
   027B F5*02               987 	mov	_T2_count,a
                            988 ;src/keypad.c:196: while( SENSOR_ZONE_2 )
   027D                     989 00113$:
                            990 ;     genIfx
                            991 ;     genIfxJump
                            992 ;       Peephole 111    removed ljmp by inverse jump logic
   027D 30 93 17            993 	jnb     _P1_3,00118$
   0280                     994 00146$:
                            995 ;src/keypad.c:199: T1_count++;
                            996 ;     genPlus
                            997 ;     genPlusIncr
   0280 05*00               998 	inc	_T1_count
   0282 E4                  999 	clr	a
   0283 B5*00 02           1000 	cjne	a,_T1_count,00147$
   0286 05*01              1001 	inc	(_T1_count + 1)
   0288                    1002 00147$:
                           1003 ;src/keypad.c:200: if (T1_count == 0x8000)
                           1004 ;     genCmpEq
   0288 E5*00              1005 	mov	a,_T1_count
                           1006 ;       Peephole 112.b  changed ljmp to sjmp
                           1007 ;       Peephole 197.a  optimized misc jump sequence
   028A 70 F1              1008 	jnz     00113$
   028C E5*01              1009 	mov     a,(_T1_count + 1)
   028E B4 80 EC           1010 	cjne    a,#0x80,00113$
                           1011 ;00148$:     
                           1012 ;       Peephole 200    removed redundant sjmp
   0291                    1013 00149$:
                           1014 ;src/keypad.c:201: return 0;
                           1015 ;     genRet
                           1016 ;       Peephole 182.b  used 16 bit load of dptr
   0291 90 00 00           1017 	mov     dptr,#0x0000
   0294 02s03r1E           1018 	ljmp	00123$
                           1019 ;src/keypad.c:205: while( !SENSOR_ZONE_2 )
   0297                    1020 00118$:
                           1021 ;     genIfx
                           1022 ;     genIfxJump
                           1023 ;       Peephole 112.a  removed ljmp by inverse jump logic
   0297 20 93 16           1024 	jb      _P1_3,00120$
   029A                    1025 00150$:
                           1026 ;src/keypad.c:207: T2_count++;
                           1027 ;     genPlus
                           1028 ;     genPlusIncr
   029A 05*02              1029 	inc	_T2_count
   029C E4                 1030 	clr	a
   029D B5*02 02           1031 	cjne	a,_T2_count,00151$
   02A0 05*03              1032 	inc	(_T2_count + 1)
   02A2                    1033 00151$:
                           1034 ;src/keypad.c:208: if (T2_count == 0x8000)
                           1035 ;     genCmpEq
   02A2 E5*02              1036 	mov	a,_T2_count
                           1037 ;       Peephole 112.b  changed ljmp to sjmp
                           1038 ;       Peephole 197.a  optimized misc jump sequence
   02A4 70 F1              1039 	jnz     00118$
   02A6 E5*03              1040 	mov     a,(_T2_count + 1)
   02A8 B4 80 EC           1041 	cjne    a,#0x80,00118$
                           1042 ;00152$:     
                           1043 ;       Peephole 200    removed redundant sjmp
   02AB                    1044 00153$:
                           1045 ;src/keypad.c:209: return 0;
                           1046 ;     genRet
                           1047 ;       Peephole 182.b  used 16 bit load of dptr
   02AB 90 00 00           1048 	mov     dptr,#0x0000
                           1049 ;       Peephole 112.b  changed ljmp to sjmp
   02AE 80 6E              1050 	sjmp    00123$
   02B0                    1051 00120$:
                           1052 ;src/keypad.c:212: if (T2_count != 0)
                           1053 ;     genCmpEq
   02B0 E5*02              1054 	mov	a,_T2_count
   02B2 70 04              1055 	jnz	00154$
   02B4 E5*03              1056 	mov	a,(_T2_count + 1)
                           1057 ;       Peephole 110    removed ljmp by inverse jump logic
   02B6 60 62              1058 	jz      00122$
   02B8                    1059 00154$:
                           1060 ;src/keypad.c:219: result = (unsigned int)235L-((400L*T1_count)/T2_count);
                           1061 ;     genCast
   02B8 AC*00              1062 	mov	r4,_T1_count
   02BA AD*01              1063 	mov	r5,(_T1_count + 1)
   02BC 7E 00              1064 	mov	r6,#0x00
   02BE 7F 00              1065 	mov	r7,#0x00
                           1066 ;     genAssign
   02C0 75*00 90           1067 	mov	__mullong_PARM_2,#0x90
   02C3 75*01 01           1068 	mov	(__mullong_PARM_2 + 1),#0x01
   02C6 75*02 00           1069 	mov	(__mullong_PARM_2 + 2),#0x00
   02C9 75*03 00           1070 	mov	(__mullong_PARM_2 + 3),#0x00
                           1071 ;     genCall
   02CC 8C 82              1072 	mov	dpl,r4
   02CE 8D 83              1073 	mov	dph,r5
   02D0 8E F0              1074 	mov	b,r6
   02D2 EF                 1075 	mov	a,r7
   02D3 12s00r00           1076 	lcall	__mullong
                           1077 ;     genCast
                           1078 ;     genCall
   02D6 AC 82              1079 	mov     r4,dpl
   02D8 AD 83              1080 	mov     r5,dph
   02DA AE F0              1081 	mov     r6,b
   02DC FF                 1082 	mov     r7,a
   02DD 85*02*00           1083 	mov     __divslong_PARM_2,_T2_count
   02E0 85*03*01           1084 	mov     (__divslong_PARM_2 + 1),(_T2_count + 1)
   02E3 75*02 00           1085 	mov     (__divslong_PARM_2 + 2),#0x00
   02E6 75*03 00           1086 	mov     (__divslong_PARM_2 + 3),#0x00
                           1087 ;       Peephole 238.a  removed 4 redundant moves
   02E9 12s00r00           1088 	lcall	__divslong
   02EC AC 82              1089 	mov	r4,dpl
   02EE AD 83              1090 	mov	r5,dph
   02F0 AE F0              1091 	mov	r6,b
   02F2 FF                 1092 	mov	r7,a
                           1093 ;     genMinus
   02F3 74 EB              1094 	mov	a,#0xEB
   02F5 C3                 1095 	clr	c
                           1096 ;       Peephole 236.l  used r4 instead of ar4
   02F6 9C                 1097 	subb    a,r4
   02F7 FC                 1098 	mov	r4,a
                           1099 ;       Peephole 181    changed mov to clr
   02F8 E4                 1100 	clr     a
                           1101 ;       Peephole 236.l  used r5 instead of ar5
   02F9 9D                 1102 	subb    a,r5
   02FA FD                 1103 	mov	r5,a
                           1104 ;       Peephole 181    changed mov to clr
   02FB E4                 1105 	clr     a
                           1106 ;       Peephole 236.l  used r6 instead of ar6
   02FC 9E                 1107 	subb    a,r6
   02FD FE                 1108 	mov	r6,a
                           1109 ;       Peephole 181    changed mov to clr
   02FE E4                 1110 	clr     a
                           1111 ;       Peephole 236.l  used r7 instead of ar7
   02FF 9F                 1112 	subb    a,r7
   0300 FF                 1113 	mov	r7,a
                           1114 ;     genCast
   0301 8C 02              1115 	mov	ar2,r4
   0303 8D 03              1116 	mov	ar3,r5
                           1117 ;src/keypad.c:220: result *= 10;
                           1118 ;     genAssign
   0305 E4                 1119 	clr	a
   0306 F5*01              1120 	mov	(__mulint_PARM_2 + 1),a
   0308 75*00 0A           1121 	mov	__mulint_PARM_2,#0x0A
                           1122 ;     genCall
   030B 8A 82              1123 	mov	dpl,r2
   030D 8B 83              1124 	mov	dph,r3
   030F 12s00r00           1125 	lcall	__mulint
   0312 AC 82              1126 	mov	r4,dpl
   0314 AD 83              1127 	mov	r5,dph
                           1128 ;     genAssign
   0316 8C 02              1129 	mov	ar2,r4
   0318 8D 03              1130 	mov	ar3,r5
   031A                    1131 00122$:
                           1132 ;src/keypad.c:224: return result;
                           1133 ;     genRet
   031A 8A 82              1134 	mov	dpl,r2
   031C 8B 83              1135 	mov	dph,r3
   031E                    1136 00123$:
   031E 85*00 81           1137 	mov	sp,_bp
   0321 D0*00              1138 	pop	_bp
   0323 22                 1139 	ret
                           1140 ;------------------------------------------------------------
                           1141 ;Allocation info for local variables in function 'read_zone_temp_3'
                           1142 ;------------------------------------------------------------
                           1143 ;result                    Allocated to registers r2 r3 
                           1144 ;------------------------------------------------------------
                           1145 ;src/keypad.c:226: unsigned int read_zone_temp_3()
                           1146 ;	-----------------------------------------
                           1147 ;	 function read_zone_temp_3
                           1148 ;	-----------------------------------------
   0324                    1149 _read_zone_temp_3:
   0324 C0*00              1150 	push	_bp
   0326 85 81*00           1151 	mov	_bp,sp
                           1152 ;src/keypad.c:228: unsigned int result = 0;
                           1153 ;     genAssign
   0329 7A 00              1154 	mov	r2,#0x00
                           1155 ;src/keypad.c:230: T1_count=0;
                           1156 ;     genAssign
                           1157 ;       Peephole 3.b    changed mov to clr
   032B E4                 1158 	clr     a
   032C FB                 1159 	mov     r3,a
   032D F5*01              1160 	mov	(_T1_count + 1),a
   032F F5*00              1161 	mov	_T1_count,a
                           1162 ;src/keypad.c:231: T2_count=0;
                           1163 ;     genAssign
   0331 E4                 1164 	clr	a
   0332 F5*03              1165 	mov	(_T2_count + 1),a
   0334 F5*02              1166 	mov	_T2_count,a
                           1167 ;src/keypad.c:234: while( SENSOR_ZONE_3 )
   0336                    1168 00103$:
                           1169 ;     genIfx
                           1170 ;     genIfxJump
                           1171 ;       Peephole 111    removed ljmp by inverse jump logic
   0336 30 92 17           1172 	jnb     _P1_2,00108$
   0339                    1173 00138$:
                           1174 ;src/keypad.c:236: if (++T2_count == 0x8000)
                           1175 ;     genPlus
                           1176 ;     genPlusIncr
   0339 05*02              1177 	inc	_T2_count
   033B E4                 1178 	clr	a
   033C B5*02 02           1179 	cjne	a,_T2_count,00139$
   033F 05*03              1180 	inc	(_T2_count + 1)
   0341                    1181 00139$:
                           1182 ;     genCmpEq
   0341 E5*02              1183 	mov	a,_T2_count
                           1184 ;       Peephole 112.b  changed ljmp to sjmp
                           1185 ;       Peephole 197.a  optimized misc jump sequence
   0343 70 F1              1186 	jnz     00103$
   0345 E5*03              1187 	mov     a,(_T2_count + 1)
   0347 B4 80 EC           1188 	cjne    a,#0x80,00103$
                           1189 ;00140$:     
                           1190 ;       Peephole 200    removed redundant sjmp
   034A                    1191 00141$:
                           1192 ;src/keypad.c:237: return 0;
                           1193 ;     genRet
                           1194 ;       Peephole 182.b  used 16 bit load of dptr
   034A 90 00 00           1195 	mov     dptr,#0x0000
   034D 02s04r15           1196 	ljmp	00123$
                           1197 ;src/keypad.c:241: while( !SENSOR_ZONE_3 )
   0350                    1198 00108$:
                           1199 ;     genIfx
                           1200 ;     genIfxJump
                           1201 ;       Peephole 112.a  removed ljmp by inverse jump logic
   0350 20 92 17           1202 	jb      _P1_2,00110$
   0353                    1203 00142$:
                           1204 ;src/keypad.c:243: if (++T2_count == 0x8000)
                           1205 ;     genPlus
                           1206 ;     genPlusIncr
   0353 05*02              1207 	inc	_T2_count
   0355 E4                 1208 	clr	a
   0356 B5*02 02           1209 	cjne	a,_T2_count,00143$
   0359 05*03              1210 	inc	(_T2_count + 1)
   035B                    1211 00143$:
                           1212 ;     genCmpEq
   035B E5*02              1213 	mov	a,_T2_count
                           1214 ;       Peephole 112.b  changed ljmp to sjmp
                           1215 ;       Peephole 197.a  optimized misc jump sequence
   035D 70 F1              1216 	jnz     00108$
   035F E5*03              1217 	mov     a,(_T2_count + 1)
   0361 B4 80 EC           1218 	cjne    a,#0x80,00108$
                           1219 ;00144$:     
                           1220 ;       Peephole 200    removed redundant sjmp
   0364                    1221 00145$:
                           1222 ;src/keypad.c:244: return 0;
                           1223 ;     genRet
                           1224 ;       Peephole 182.b  used 16 bit load of dptr
   0364 90 00 00           1225 	mov     dptr,#0x0000
   0367 02s04r15           1226 	ljmp	00123$
   036A                    1227 00110$:
                           1228 ;src/keypad.c:247: T1_count=0;
                           1229 ;     genAssign
   036A E4                 1230 	clr	a
   036B F5*01              1231 	mov	(_T1_count + 1),a
   036D F5*00              1232 	mov	_T1_count,a
                           1233 ;src/keypad.c:248: T2_count=0;
                           1234 ;     genAssign
   036F E4                 1235 	clr	a
   0370 F5*03              1236 	mov	(_T2_count + 1),a
   0372 F5*02              1237 	mov	_T2_count,a
                           1238 ;src/keypad.c:251: while( SENSOR_ZONE_3 )
   0374                    1239 00113$:
                           1240 ;     genIfx
                           1241 ;     genIfxJump
                           1242 ;       Peephole 111    removed ljmp by inverse jump logic
   0374 30 92 17           1243 	jnb     _P1_2,00118$
   0377                    1244 00146$:
                           1245 ;src/keypad.c:254: T1_count++;
                           1246 ;     genPlus
                           1247 ;     genPlusIncr
   0377 05*00              1248 	inc	_T1_count
   0379 E4                 1249 	clr	a
   037A B5*00 02           1250 	cjne	a,_T1_count,00147$
   037D 05*01              1251 	inc	(_T1_count + 1)
   037F                    1252 00147$:
                           1253 ;src/keypad.c:255: if (T1_count == 0x8000)
                           1254 ;     genCmpEq
   037F E5*00              1255 	mov	a,_T1_count
                           1256 ;       Peephole 112.b  changed ljmp to sjmp
                           1257 ;       Peephole 197.a  optimized misc jump sequence
   0381 70 F1              1258 	jnz     00113$
   0383 E5*01              1259 	mov     a,(_T1_count + 1)
   0385 B4 80 EC           1260 	cjne    a,#0x80,00113$
                           1261 ;00148$:     
                           1262 ;       Peephole 200    removed redundant sjmp
   0388                    1263 00149$:
                           1264 ;src/keypad.c:256: return 0;
                           1265 ;     genRet
                           1266 ;       Peephole 182.b  used 16 bit load of dptr
   0388 90 00 00           1267 	mov     dptr,#0x0000
   038B 02s04r15           1268 	ljmp	00123$
                           1269 ;src/keypad.c:260: while( !SENSOR_ZONE_3 )
   038E                    1270 00118$:
                           1271 ;     genIfx
                           1272 ;     genIfxJump
                           1273 ;       Peephole 112.a  removed ljmp by inverse jump logic
   038E 20 92 16           1274 	jb      _P1_2,00120$
   0391                    1275 00150$:
                           1276 ;src/keypad.c:262: T2_count++;
                           1277 ;     genPlus
                           1278 ;     genPlusIncr
   0391 05*02              1279 	inc	_T2_count
   0393 E4                 1280 	clr	a
   0394 B5*02 02           1281 	cjne	a,_T2_count,00151$
   0397 05*03              1282 	inc	(_T2_count + 1)
   0399                    1283 00151$:
                           1284 ;src/keypad.c:263: if (T2_count == 0x8000)
                           1285 ;     genCmpEq
   0399 E5*02              1286 	mov	a,_T2_count
                           1287 ;       Peephole 112.b  changed ljmp to sjmp
                           1288 ;       Peephole 197.a  optimized misc jump sequence
   039B 70 F1              1289 	jnz     00118$
   039D E5*03              1290 	mov     a,(_T2_count + 1)
   039F B4 80 EC           1291 	cjne    a,#0x80,00118$
                           1292 ;00152$:     
                           1293 ;       Peephole 200    removed redundant sjmp
   03A2                    1294 00153$:
                           1295 ;src/keypad.c:264: return 0;
                           1296 ;     genRet
                           1297 ;       Peephole 182.b  used 16 bit load of dptr
   03A2 90 00 00           1298 	mov     dptr,#0x0000
                           1299 ;       Peephole 112.b  changed ljmp to sjmp
   03A5 80 6E              1300 	sjmp    00123$
   03A7                    1301 00120$:
                           1302 ;src/keypad.c:267: if (T2_count != 0)
                           1303 ;     genCmpEq
   03A7 E5*02              1304 	mov	a,_T2_count
   03A9 70 04              1305 	jnz	00154$
   03AB E5*03              1306 	mov	a,(_T2_count + 1)
                           1307 ;       Peephole 110    removed ljmp by inverse jump logic
   03AD 60 62              1308 	jz      00122$
   03AF                    1309 00154$:
                           1310 ;src/keypad.c:274: result = (unsigned int)235L-((400L*T1_count)/T2_count);
                           1311 ;     genCast
   03AF AC*00              1312 	mov	r4,_T1_count
   03B1 AD*01              1313 	mov	r5,(_T1_count + 1)
   03B3 7E 00              1314 	mov	r6,#0x00
   03B5 7F 00              1315 	mov	r7,#0x00
                           1316 ;     genAssign
   03B7 75*00 90           1317 	mov	__mullong_PARM_2,#0x90
   03BA 75*01 01           1318 	mov	(__mullong_PARM_2 + 1),#0x01
   03BD 75*02 00           1319 	mov	(__mullong_PARM_2 + 2),#0x00
   03C0 75*03 00           1320 	mov	(__mullong_PARM_2 + 3),#0x00
                           1321 ;     genCall
   03C3 8C 82              1322 	mov	dpl,r4
   03C5 8D 83              1323 	mov	dph,r5
   03C7 8E F0              1324 	mov	b,r6
   03C9 EF                 1325 	mov	a,r7
   03CA 12s00r00           1326 	lcall	__mullong
                           1327 ;     genCast
                           1328 ;     genCall
   03CD AC 82              1329 	mov     r4,dpl
   03CF AD 83              1330 	mov     r5,dph
   03D1 AE F0              1331 	mov     r6,b
   03D3 FF                 1332 	mov     r7,a
   03D4 85*02*00           1333 	mov     __divslong_PARM_2,_T2_count
   03D7 85*03*01           1334 	mov     (__divslong_PARM_2 + 1),(_T2_count + 1)
   03DA 75*02 00           1335 	mov     (__divslong_PARM_2 + 2),#0x00
   03DD 75*03 00           1336 	mov     (__divslong_PARM_2 + 3),#0x00
                           1337 ;       Peephole 238.a  removed 4 redundant moves
   03E0 12s00r00           1338 	lcall	__divslong
   03E3 AC 82              1339 	mov	r4,dpl
   03E5 AD 83              1340 	mov	r5,dph
   03E7 AE F0              1341 	mov	r6,b
   03E9 FF                 1342 	mov	r7,a
                           1343 ;     genMinus
   03EA 74 EB              1344 	mov	a,#0xEB
   03EC C3                 1345 	clr	c
                           1346 ;       Peephole 236.l  used r4 instead of ar4
   03ED 9C                 1347 	subb    a,r4
   03EE FC                 1348 	mov	r4,a
                           1349 ;       Peephole 181    changed mov to clr
   03EF E4                 1350 	clr     a
                           1351 ;       Peephole 236.l  used r5 instead of ar5
   03F0 9D                 1352 	subb    a,r5
   03F1 FD                 1353 	mov	r5,a
                           1354 ;       Peephole 181    changed mov to clr
   03F2 E4                 1355 	clr     a
                           1356 ;       Peephole 236.l  used r6 instead of ar6
   03F3 9E                 1357 	subb    a,r6
   03F4 FE                 1358 	mov	r6,a
                           1359 ;       Peephole 181    changed mov to clr
   03F5 E4                 1360 	clr     a
                           1361 ;       Peephole 236.l  used r7 instead of ar7
   03F6 9F                 1362 	subb    a,r7
   03F7 FF                 1363 	mov	r7,a
                           1364 ;     genCast
   03F8 8C 02              1365 	mov	ar2,r4
   03FA 8D 03              1366 	mov	ar3,r5
                           1367 ;src/keypad.c:275: result *= 10;
                           1368 ;     genAssign
   03FC E4                 1369 	clr	a
   03FD F5*01              1370 	mov	(__mulint_PARM_2 + 1),a
   03FF 75*00 0A           1371 	mov	__mulint_PARM_2,#0x0A
                           1372 ;     genCall
   0402 8A 82              1373 	mov	dpl,r2
   0404 8B 83              1374 	mov	dph,r3
   0406 12s00r00           1375 	lcall	__mulint
   0409 AC 82              1376 	mov	r4,dpl
   040B AD 83              1377 	mov	r5,dph
                           1378 ;     genAssign
   040D 8C 02              1379 	mov	ar2,r4
   040F 8D 03              1380 	mov	ar3,r5
   0411                    1381 00122$:
                           1382 ;src/keypad.c:279: return result;
                           1383 ;     genRet
   0411 8A 82              1384 	mov	dpl,r2
   0413 8B 83              1385 	mov	dph,r3
   0415                    1386 00123$:
   0415 85*00 81           1387 	mov	sp,_bp
   0418 D0*00              1388 	pop	_bp
   041A 22                 1389 	ret
                           1390 ;------------------------------------------------------------
                           1391 ;Allocation info for local variables in function 'read_zone_temp_4'
                           1392 ;------------------------------------------------------------
                           1393 ;result                    Allocated to registers r2 r3 
                           1394 ;------------------------------------------------------------
                           1395 ;src/keypad.c:281: unsigned int read_zone_temp_4()
                           1396 ;	-----------------------------------------
                           1397 ;	 function read_zone_temp_4
                           1398 ;	-----------------------------------------
   041B                    1399 _read_zone_temp_4:
   041B C0*00              1400 	push	_bp
   041D 85 81*00           1401 	mov	_bp,sp
                           1402 ;src/keypad.c:283: unsigned int result = 0;
                           1403 ;     genAssign
   0420 7A 00              1404 	mov	r2,#0x00
                           1405 ;src/keypad.c:285: T1_count=0;
                           1406 ;     genAssign
                           1407 ;       Peephole 3.b    changed mov to clr
   0422 E4                 1408 	clr     a
   0423 FB                 1409 	mov     r3,a
   0424 F5*01              1410 	mov	(_T1_count + 1),a
   0426 F5*00              1411 	mov	_T1_count,a
                           1412 ;src/keypad.c:286: T2_count=0;
                           1413 ;     genAssign
   0428 E4                 1414 	clr	a
   0429 F5*03              1415 	mov	(_T2_count + 1),a
   042B F5*02              1416 	mov	_T2_count,a
                           1417 ;src/keypad.c:289: while( SENSOR_ZONE_4 )
   042D                    1418 00103$:
                           1419 ;     genIfx
                           1420 ;     genIfxJump
                           1421 ;       Peephole 111    removed ljmp by inverse jump logic
   042D 30 80 17           1422 	jnb     _P0_0,00108$
   0430                    1423 00138$:
                           1424 ;src/keypad.c:291: if (++T2_count == 0x8000)
                           1425 ;     genPlus
                           1426 ;     genPlusIncr
   0430 05*02              1427 	inc	_T2_count
   0432 E4                 1428 	clr	a
   0433 B5*02 02           1429 	cjne	a,_T2_count,00139$
   0436 05*03              1430 	inc	(_T2_count + 1)
   0438                    1431 00139$:
                           1432 ;     genCmpEq
   0438 E5*02              1433 	mov	a,_T2_count
                           1434 ;       Peephole 112.b  changed ljmp to sjmp
                           1435 ;       Peephole 197.a  optimized misc jump sequence
   043A 70 F1              1436 	jnz     00103$
   043C E5*03              1437 	mov     a,(_T2_count + 1)
   043E B4 80 EC           1438 	cjne    a,#0x80,00103$
                           1439 ;00140$:     
                           1440 ;       Peephole 200    removed redundant sjmp
   0441                    1441 00141$:
                           1442 ;src/keypad.c:292: return 0;
                           1443 ;     genRet
                           1444 ;       Peephole 182.b  used 16 bit load of dptr
   0441 90 00 00           1445 	mov     dptr,#0x0000
   0444 02s05r0C           1446 	ljmp	00123$
                           1447 ;src/keypad.c:296: while( !SENSOR_ZONE_4 )
   0447                    1448 00108$:
                           1449 ;     genIfx
                           1450 ;     genIfxJump
                           1451 ;       Peephole 112.a  removed ljmp by inverse jump logic
   0447 20 80 17           1452 	jb      _P0_0,00110$
   044A                    1453 00142$:
                           1454 ;src/keypad.c:298: if (++T2_count == 0x8000)
                           1455 ;     genPlus
                           1456 ;     genPlusIncr
   044A 05*02              1457 	inc	_T2_count
   044C E4                 1458 	clr	a
   044D B5*02 02           1459 	cjne	a,_T2_count,00143$
   0450 05*03              1460 	inc	(_T2_count + 1)
   0452                    1461 00143$:
                           1462 ;     genCmpEq
   0452 E5*02              1463 	mov	a,_T2_count
                           1464 ;       Peephole 112.b  changed ljmp to sjmp
                           1465 ;       Peephole 197.a  optimized misc jump sequence
   0454 70 F1              1466 	jnz     00108$
   0456 E5*03              1467 	mov     a,(_T2_count + 1)
   0458 B4 80 EC           1468 	cjne    a,#0x80,00108$
                           1469 ;00144$:     
                           1470 ;       Peephole 200    removed redundant sjmp
   045B                    1471 00145$:
                           1472 ;src/keypad.c:299: return 0;
                           1473 ;     genRet
                           1474 ;       Peephole 182.b  used 16 bit load of dptr
   045B 90 00 00           1475 	mov     dptr,#0x0000
   045E 02s05r0C           1476 	ljmp	00123$
   0461                    1477 00110$:
                           1478 ;src/keypad.c:302: T1_count=0;
                           1479 ;     genAssign
   0461 E4                 1480 	clr	a
   0462 F5*01              1481 	mov	(_T1_count + 1),a
   0464 F5*00              1482 	mov	_T1_count,a
                           1483 ;src/keypad.c:303: T2_count=0;
                           1484 ;     genAssign
   0466 E4                 1485 	clr	a
   0467 F5*03              1486 	mov	(_T2_count + 1),a
   0469 F5*02              1487 	mov	_T2_count,a
                           1488 ;src/keypad.c:306: while( SENSOR_ZONE_4 )
   046B                    1489 00113$:
                           1490 ;     genIfx
                           1491 ;     genIfxJump
                           1492 ;       Peephole 111    removed ljmp by inverse jump logic
   046B 30 80 17           1493 	jnb     _P0_0,00118$
   046E                    1494 00146$:
                           1495 ;src/keypad.c:309: T1_count++;
                           1496 ;     genPlus
                           1497 ;     genPlusIncr
   046E 05*00              1498 	inc	_T1_count
   0470 E4                 1499 	clr	a
   0471 B5*00 02           1500 	cjne	a,_T1_count,00147$
   0474 05*01              1501 	inc	(_T1_count + 1)
   0476                    1502 00147$:
                           1503 ;src/keypad.c:310: if (T1_count == 0x8000)
                           1504 ;     genCmpEq
   0476 E5*00              1505 	mov	a,_T1_count
                           1506 ;       Peephole 112.b  changed ljmp to sjmp
                           1507 ;       Peephole 197.a  optimized misc jump sequence
   0478 70 F1              1508 	jnz     00113$
   047A E5*01              1509 	mov     a,(_T1_count + 1)
   047C B4 80 EC           1510 	cjne    a,#0x80,00113$
                           1511 ;00148$:     
                           1512 ;       Peephole 200    removed redundant sjmp
   047F                    1513 00149$:
                           1514 ;src/keypad.c:311: return 0;
                           1515 ;     genRet
                           1516 ;       Peephole 182.b  used 16 bit load of dptr
   047F 90 00 00           1517 	mov     dptr,#0x0000
   0482 02s05r0C           1518 	ljmp	00123$
                           1519 ;src/keypad.c:315: while( !SENSOR_ZONE_4 )
   0485                    1520 00118$:
                           1521 ;     genIfx
                           1522 ;     genIfxJump
                           1523 ;       Peephole 112.a  removed ljmp by inverse jump logic
   0485 20 80 16           1524 	jb      _P0_0,00120$
   0488                    1525 00150$:
                           1526 ;src/keypad.c:317: T2_count++;
                           1527 ;     genPlus
                           1528 ;     genPlusIncr
   0488 05*02              1529 	inc	_T2_count
   048A E4                 1530 	clr	a
   048B B5*02 02           1531 	cjne	a,_T2_count,00151$
   048E 05*03              1532 	inc	(_T2_count + 1)
   0490                    1533 00151$:
                           1534 ;src/keypad.c:318: if (T2_count == 0x8000)
                           1535 ;     genCmpEq
   0490 E5*02              1536 	mov	a,_T2_count
                           1537 ;       Peephole 112.b  changed ljmp to sjmp
                           1538 ;       Peephole 197.a  optimized misc jump sequence
   0492 70 F1              1539 	jnz     00118$
   0494 E5*03              1540 	mov     a,(_T2_count + 1)
   0496 B4 80 EC           1541 	cjne    a,#0x80,00118$
                           1542 ;00152$:     
                           1543 ;       Peephole 200    removed redundant sjmp
   0499                    1544 00153$:
                           1545 ;src/keypad.c:319: return 0;
                           1546 ;     genRet
                           1547 ;       Peephole 182.b  used 16 bit load of dptr
   0499 90 00 00           1548 	mov     dptr,#0x0000
                           1549 ;       Peephole 112.b  changed ljmp to sjmp
   049C 80 6E              1550 	sjmp    00123$
   049E                    1551 00120$:
                           1552 ;src/keypad.c:322: if (T2_count != 0)
                           1553 ;     genCmpEq
   049E E5*02              1554 	mov	a,_T2_count
   04A0 70 04              1555 	jnz	00154$
   04A2 E5*03              1556 	mov	a,(_T2_count + 1)
                           1557 ;       Peephole 110    removed ljmp by inverse jump logic
   04A4 60 62              1558 	jz      00122$
   04A6                    1559 00154$:
                           1560 ;src/keypad.c:329: result = (unsigned int)235L-((400L*T1_count)/T2_count);
                           1561 ;     genCast
   04A6 AC*00              1562 	mov	r4,_T1_count
   04A8 AD*01              1563 	mov	r5,(_T1_count + 1)
   04AA 7E 00              1564 	mov	r6,#0x00
   04AC 7F 00              1565 	mov	r7,#0x00
                           1566 ;     genAssign
   04AE 75*00 90           1567 	mov	__mullong_PARM_2,#0x90
   04B1 75*01 01           1568 	mov	(__mullong_PARM_2 + 1),#0x01
   04B4 75*02 00           1569 	mov	(__mullong_PARM_2 + 2),#0x00
   04B7 75*03 00           1570 	mov	(__mullong_PARM_2 + 3),#0x00
                           1571 ;     genCall
   04BA 8C 82              1572 	mov	dpl,r4
   04BC 8D 83              1573 	mov	dph,r5
   04BE 8E F0              1574 	mov	b,r6
   04C0 EF                 1575 	mov	a,r7
   04C1 12s00r00           1576 	lcall	__mullong
                           1577 ;     genCast
                           1578 ;     genCall
   04C4 AC 82              1579 	mov     r4,dpl
   04C6 AD 83              1580 	mov     r5,dph
   04C8 AE F0              1581 	mov     r6,b
   04CA FF                 1582 	mov     r7,a
   04CB 85*02*00           1583 	mov     __divslong_PARM_2,_T2_count
   04CE 85*03*01           1584 	mov     (__divslong_PARM_2 + 1),(_T2_count + 1)
   04D1 75*02 00           1585 	mov     (__divslong_PARM_2 + 2),#0x00
   04D4 75*03 00           1586 	mov     (__divslong_PARM_2 + 3),#0x00
                           1587 ;       Peephole 238.a  removed 4 redundant moves
   04D7 12s00r00           1588 	lcall	__divslong
   04DA AC 82              1589 	mov	r4,dpl
   04DC AD 83              1590 	mov	r5,dph
   04DE AE F0              1591 	mov	r6,b
   04E0 FF                 1592 	mov	r7,a
                           1593 ;     genMinus
   04E1 74 EB              1594 	mov	a,#0xEB
   04E3 C3                 1595 	clr	c
                           1596 ;       Peephole 236.l  used r4 instead of ar4
   04E4 9C                 1597 	subb    a,r4
   04E5 FC                 1598 	mov	r4,a
                           1599 ;       Peephole 181    changed mov to clr
   04E6 E4                 1600 	clr     a
                           1601 ;       Peephole 236.l  used r5 instead of ar5
   04E7 9D                 1602 	subb    a,r5
   04E8 FD                 1603 	mov	r5,a
                           1604 ;       Peephole 181    changed mov to clr
   04E9 E4                 1605 	clr     a
                           1606 ;       Peephole 236.l  used r6 instead of ar6
   04EA 9E                 1607 	subb    a,r6
   04EB FE                 1608 	mov	r6,a
                           1609 ;       Peephole 181    changed mov to clr
   04EC E4                 1610 	clr     a
                           1611 ;       Peephole 236.l  used r7 instead of ar7
   04ED 9F                 1612 	subb    a,r7
   04EE FF                 1613 	mov	r7,a
                           1614 ;     genCast
   04EF 8C 02              1615 	mov	ar2,r4
   04F1 8D 03              1616 	mov	ar3,r5
                           1617 ;src/keypad.c:330: result *= 10;
                           1618 ;     genAssign
   04F3 E4                 1619 	clr	a
   04F4 F5*01              1620 	mov	(__mulint_PARM_2 + 1),a
   04F6 75*00 0A           1621 	mov	__mulint_PARM_2,#0x0A
                           1622 ;     genCall
   04F9 8A 82              1623 	mov	dpl,r2
   04FB 8B 83              1624 	mov	dph,r3
   04FD 12s00r00           1625 	lcall	__mulint
   0500 AC 82              1626 	mov	r4,dpl
   0502 AD 83              1627 	mov	r5,dph
                           1628 ;     genAssign
   0504 8C 02              1629 	mov	ar2,r4
   0506 8D 03              1630 	mov	ar3,r5
   0508                    1631 00122$:
                           1632 ;src/keypad.c:334: return result;
                           1633 ;     genRet
   0508 8A 82              1634 	mov	dpl,r2
   050A 8B 83              1635 	mov	dph,r3
   050C                    1636 00123$:
   050C 85*00 81           1637 	mov	sp,_bp
   050F D0*00              1638 	pop	_bp
   0511 22                 1639 	ret
                           1640 ;------------------------------------------------------------
                           1641 ;Allocation info for local variables in function 'timer0_interrupt'
                           1642 ;------------------------------------------------------------
                           1643 ;input_value               Allocated to registers r3 
                           1644 ;key_code                  Allocated to registers r4 
                           1645 ;empty                     Allocated to registers r2 
                           1646 ;counter                   Allocated with name '_timer0_interrupt_counter_1_1'
                           1647 ;------------------------------------------------------------
                           1648 ;src/keypad.c:345: void timer0_interrupt(void) interrupt TF0_VECTOR using 0
                           1649 ;	-----------------------------------------
                           1650 ;	 function timer0_interrupt
                           1651 ;	-----------------------------------------
   0512                    1652 _timer0_interrupt:
   0512 C0 E0              1653 	push	acc
   0514 C0 F0              1654 	push	b
   0516 C0 82              1655 	push	dpl
   0518 C0 83              1656 	push	dph
   051A C0 02              1657 	push	(0+2)
   051C C0 03              1658 	push	(0+3)
   051E C0 04              1659 	push	(0+4)
   0520 C0 05              1660 	push	(0+5)
   0522 C0 06              1661 	push	(0+6)
   0524 C0 07              1662 	push	(0+7)
   0526 C0 00              1663 	push	(0+0)
   0528 C0 01              1664 	push	(0+1)
   052A C0 D0              1665 	push	psw
   052C 75 D0 00           1666 	mov	psw,#0x00
   052F C0*00              1667 	push	_bp
   0531 85 81*00           1668 	mov	_bp,sp
                           1669 ;src/keypad.c:353: delay_counter++;
                           1670 ;     genPlus
                           1671 ;     genPlusIncr
   0534 05*05              1672 	inc	_delay_counter
                           1673 ;src/keypad.c:354: if (delay_counter == 64)
                           1674 ;     genCmpEq
   0536 E5*05              1675 	mov	a,_delay_counter
                           1676 ;       Peephole 112.b  changed ljmp to sjmp
                           1677 ;       Peephole 199    optimized misc jump sequence
   0538 B4 40 0F           1678 	cjne    a,#0x40,00102$
                           1679 ;00172$:
                           1680 ;       Peephole 200    removed redundant sjmp
   053B                    1681 00173$:
                           1682 ;src/keypad.c:356: system_data.temperatures[0] = read_zone_temp_1();
                           1683 ;     genCall
   053B 12s01r36           1684 	lcall	_read_zone_temp_1
   053E AA 82              1685 	mov	r2,dpl
   0540 AB 83              1686 	mov	r3,dph
                           1687 ;     genPointerSet
                           1688 ;     genFarPointerSet
   0542 90s01r6C           1689 	mov	dptr,#(_system_data + 0x016c)
   0545 EA                 1690 	mov	a,r2
   0546 F0                 1691 	movx	@dptr,a
   0547 A3                 1692 	inc	dptr
   0548 EB                 1693 	mov	a,r3
   0549 F0                 1694 	movx	@dptr,a
   054A                    1695 00102$:
                           1696 ;src/keypad.c:358: if (delay_counter == 128)
                           1697 ;     genCmpEq
   054A E5*05              1698 	mov	a,_delay_counter
                           1699 ;       Peephole 112.b  changed ljmp to sjmp
                           1700 ;       Peephole 199    optimized misc jump sequence
   054C B4 80 0F           1701 	cjne    a,#0x80,00104$
                           1702 ;00174$:
                           1703 ;       Peephole 200    removed redundant sjmp
   054F                    1704 00175$:
                           1705 ;src/keypad.c:360: system_data.temperatures[1] = read_zone_temp_2();
                           1706 ;     genCall
   054F 12s02r2D           1707 	lcall	_read_zone_temp_2
   0552 AA 82              1708 	mov	r2,dpl
   0554 AB 83              1709 	mov	r3,dph
                           1710 ;     genPointerSet
                           1711 ;     genFarPointerSet
   0556 90s01r6E           1712 	mov	dptr,#(_system_data + 0x016e)
   0559 EA                 1713 	mov	a,r2
   055A F0                 1714 	movx	@dptr,a
   055B A3                 1715 	inc	dptr
   055C EB                 1716 	mov	a,r3
   055D F0                 1717 	movx	@dptr,a
   055E                    1718 00104$:
                           1719 ;src/keypad.c:362: if (delay_counter == 192)
                           1720 ;     genCmpEq
   055E E5*05              1721 	mov	a,_delay_counter
                           1722 ;       Peephole 112.b  changed ljmp to sjmp
                           1723 ;       Peephole 199    optimized misc jump sequence
   0560 B4 C0 0F           1724 	cjne    a,#0xC0,00106$
                           1725 ;00176$:
                           1726 ;       Peephole 200    removed redundant sjmp
   0563                    1727 00177$:
                           1728 ;src/keypad.c:364: system_data.temperatures[2] = read_zone_temp_3();
                           1729 ;     genCall
   0563 12s03r24           1730 	lcall	_read_zone_temp_3
   0566 AA 82              1731 	mov	r2,dpl
   0568 AB 83              1732 	mov	r3,dph
                           1733 ;     genPointerSet
                           1734 ;     genFarPointerSet
   056A 90s01r70           1735 	mov	dptr,#(_system_data + 0x0170)
   056D EA                 1736 	mov	a,r2
   056E F0                 1737 	movx	@dptr,a
   056F A3                 1738 	inc	dptr
   0570 EB                 1739 	mov	a,r3
   0571 F0                 1740 	movx	@dptr,a
   0572                    1741 00106$:
                           1742 ;src/keypad.c:366: if (delay_counter == 255)
                           1743 ;     genCmpEq
   0572 E5*05              1744 	mov	a,_delay_counter
                           1745 ;       Peephole 112.b  changed ljmp to sjmp
                           1746 ;       Peephole 199    optimized misc jump sequence
   0574 B4 FF 0F           1747 	cjne    a,#0xFF,00108$
                           1748 ;00178$:
                           1749 ;       Peephole 200    removed redundant sjmp
   0577                    1750 00179$:
                           1751 ;src/keypad.c:368: system_data.temperatures[3] = read_zone_temp_4();
                           1752 ;     genCall
   0577 12s04r1B           1753 	lcall	_read_zone_temp_4
   057A AA 82              1754 	mov	r2,dpl
   057C AB 83              1755 	mov	r3,dph
                           1756 ;     genPointerSet
                           1757 ;     genFarPointerSet
   057E 90s01r72           1758 	mov	dptr,#(_system_data + 0x0172)
   0581 EA                 1759 	mov	a,r2
   0582 F0                 1760 	movx	@dptr,a
   0583 A3                 1761 	inc	dptr
   0584 EB                 1762 	mov	a,r3
   0585 F0                 1763 	movx	@dptr,a
   0586                    1764 00108$:
                           1765 ;src/keypad.c:371: if (blinking == TRUE)
                           1766 ;     genCmpEq
   0586 E5*00              1767 	mov	a,_blinking
   0588 B4 01 02           1768 	cjne	a,#0x01,00180$
   058B 80 03              1769 	sjmp	00181$
   058D                    1770 00180$:
   058D 02s06rFF           1771 	ljmp	00118$
   0590                    1772 00181$:
                           1773 ;src/keypad.c:373: blink_counter++;
                           1774 ;     genPlus
                           1775 ;     genPlusIncr
   0590 05*04              1776 	inc	_blink_counter
                           1777 ;src/keypad.c:374: if (blink_counter == 30)
                           1778 ;     genCmpEq
   0592 E5*04              1779 	mov	a,_blink_counter
   0594 B4 1E 02           1780 	cjne	a,#0x1E,00182$
   0597 80 03              1781 	sjmp	00183$
   0599                    1782 00182$:
   0599 02s06r48           1783 	ljmp	00112$
   059C                    1784 00183$:
                           1785 ;src/keypad.c:376: lcd_goto_xy(current_blink_params->position, 0);
                           1786 ;     genAssign
   059C AA*00              1787 	mov	r2,_current_blink_params
   059E AB*01              1788 	mov	r3,(_current_blink_params + 1)
   05A0 AC*02              1789 	mov	r4,(_current_blink_params + 2)
                           1790 ;     genPointerGet
                           1791 ;     genGenPointerGet
   05A2 8A 82              1792 	mov	dpl,r2
   05A4 8B 83              1793 	mov	dph,r3
   05A6 8C F0              1794 	mov	b,r4
   05A8 12s00r00           1795 	lcall	__gptrget
   05AB FA                 1796 	mov	r2,a
                           1797 ;     genIpush
                           1798 ;       Peephole 181    changed mov to clr
   05AC E4                 1799 	clr     a
   05AD C0 E0              1800 	push	acc
                           1801 ;     genCall
   05AF 8A 82              1802 	mov	dpl,r2
   05B1 12s00r00           1803 	lcall	_lcd_goto_xy
   05B4 15 81              1804 	dec	sp
                           1805 ;src/keypad.c:377: lcd_put_string(current_blink_params->first_pattern_off);
                           1806 ;     genAssign
   05B6 AA*00              1807 	mov	r2,_current_blink_params
   05B8 AB*01              1808 	mov	r3,(_current_blink_params + 1)
   05BA AC*02              1809 	mov	r4,(_current_blink_params + 2)
                           1810 ;     genPlus
                           1811 ;     genPlusIncr
   05BC 74 04              1812 	mov	a,#0x04
                           1813 ;       Peephole 236.a  used r2 instead of ar2
   05BE 2A                 1814 	add     a,r2
   05BF FA                 1815 	mov	r2,a
                           1816 ;       Peephole 181    changed mov to clr
   05C0 E4                 1817 	clr     a
                           1818 ;       Peephole 236.b  used r3 instead of ar3
   05C1 3B                 1819 	addc    a,r3
   05C2 FB                 1820 	mov	r3,a
                           1821 ;     genPointerGet
                           1822 ;     genGenPointerGet
   05C3 8A 82              1823 	mov	dpl,r2
   05C5 8B 83              1824 	mov	dph,r3
   05C7 8C F0              1825 	mov	b,r4
   05C9 12s00r00           1826 	lcall	__gptrget
   05CC FA                 1827 	mov	r2,a
   05CD A3                 1828 	inc	dptr
   05CE 12s00r00           1829 	lcall	__gptrget
   05D1 FB                 1830 	mov	r3,a
   05D2 A3                 1831 	inc	dptr
   05D3 12s00r00           1832 	lcall	__gptrget
   05D6 FC                 1833 	mov	r4,a
                           1834 ;     genCall
   05D7 8A 82              1835 	mov	dpl,r2
   05D9 8B 83              1836 	mov	dph,r3
   05DB 8C F0              1837 	mov	b,r4
   05DD 12s00r00           1838 	lcall	_lcd_put_string
                           1839 ;src/keypad.c:379: if (current_blink_params->lines > 1)
                           1840 ;     genAssign
   05E0 AA*00              1841 	mov	r2,_current_blink_params
   05E2 AB*01              1842 	mov	r3,(_current_blink_params + 1)
   05E4 AC*02              1843 	mov	r4,(_current_blink_params + 2)
                           1844 ;     genPlus
   05E6 74 0D              1845 	mov	a,#0x0D
                           1846 ;       Peephole 236.a  used r2 instead of ar2
   05E8 2A                 1847 	add     a,r2
   05E9 FA                 1848 	mov	r2,a
                           1849 ;       Peephole 181    changed mov to clr
   05EA E4                 1850 	clr     a
                           1851 ;       Peephole 236.b  used r3 instead of ar3
   05EB 3B                 1852 	addc    a,r3
   05EC FB                 1853 	mov	r3,a
                           1854 ;     genPointerGet
                           1855 ;     genGenPointerGet
   05ED 8A 82              1856 	mov	dpl,r2
   05EF 8B 83              1857 	mov	dph,r3
   05F1 8C F0              1858 	mov	b,r4
   05F3 12s00r00           1859 	lcall	__gptrget
   05F6 FA                 1860 	mov	r2,a
                           1861 ;     genCmpGt
                           1862 ;     genCmp
   05F7 C3                 1863 	clr	c
                           1864 ;       Peephole 159    avoided xrl during execution
   05F8 74 81              1865 	mov  a,#(0x01 ^ 0x80)
   05FA 8A F0              1866 	mov	b,r2
   05FC 63 F0 80           1867 	xrl	b,#0x80
   05FF 95 F0              1868 	subb	a,b
                           1869 ;     genIfxJump
                           1870 ;       Peephole 108    removed ljmp by inverse jump logic
   0601 50 45              1871 	jnc     00112$
   0603                    1872 00184$:
                           1873 ;src/keypad.c:381: lcd_goto_xy(current_blink_params->position, 2);
                           1874 ;     genAssign
   0603 AA*00              1875 	mov	r2,_current_blink_params
   0605 AB*01              1876 	mov	r3,(_current_blink_params + 1)
   0607 AC*02              1877 	mov	r4,(_current_blink_params + 2)
                           1878 ;     genPointerGet
                           1879 ;     genGenPointerGet
   0609 8A 82              1880 	mov	dpl,r2
   060B 8B 83              1881 	mov	dph,r3
   060D 8C F0              1882 	mov	b,r4
   060F 12s00r00           1883 	lcall	__gptrget
   0612 FA                 1884 	mov	r2,a
                           1885 ;     genIpush
   0613 74 02              1886 	mov	a,#0x02
   0615 C0 E0              1887 	push	acc
                           1888 ;     genCall
   0617 8A 82              1889 	mov	dpl,r2
   0619 12s00r00           1890 	lcall	_lcd_goto_xy
   061C 15 81              1891 	dec	sp
                           1892 ;src/keypad.c:382: lcd_put_string(current_blink_params->second_pattern_off);
                           1893 ;     genAssign
   061E AA*00              1894 	mov	r2,_current_blink_params
   0620 AB*01              1895 	mov	r3,(_current_blink_params + 1)
   0622 AC*02              1896 	mov	r4,(_current_blink_params + 2)
                           1897 ;     genPlus
   0624 74 0A              1898 	mov	a,#0x0A
                           1899 ;       Peephole 236.a  used r2 instead of ar2
   0626 2A                 1900 	add     a,r2
   0627 FA                 1901 	mov	r2,a
                           1902 ;       Peephole 181    changed mov to clr
   0628 E4                 1903 	clr     a
                           1904 ;       Peephole 236.b  used r3 instead of ar3
   0629 3B                 1905 	addc    a,r3
   062A FB                 1906 	mov	r3,a
                           1907 ;     genPointerGet
                           1908 ;     genGenPointerGet
   062B 8A 82              1909 	mov	dpl,r2
   062D 8B 83              1910 	mov	dph,r3
   062F 8C F0              1911 	mov	b,r4
   0631 12s00r00           1912 	lcall	__gptrget
   0634 FA                 1913 	mov	r2,a
   0635 A3                 1914 	inc	dptr
   0636 12s00r00           1915 	lcall	__gptrget
   0639 FB                 1916 	mov	r3,a
   063A A3                 1917 	inc	dptr
   063B 12s00r00           1918 	lcall	__gptrget
   063E FC                 1919 	mov	r4,a
                           1920 ;     genCall
   063F 8A 82              1921 	mov	dpl,r2
   0641 8B 83              1922 	mov	dph,r3
   0643 8C F0              1923 	mov	b,r4
   0645 12s00r00           1924 	lcall	_lcd_put_string
   0648                    1925 00112$:
                           1926 ;src/keypad.c:385: if (blink_counter == 60)
                           1927 ;     genCmpEq
   0648 E5*04              1928 	mov	a,_blink_counter
   064A B4 3C 02           1929 	cjne	a,#0x3C,00185$
   064D 80 03              1930 	sjmp	00186$
   064F                    1931 00185$:
   064F 02s06rFF           1932 	ljmp	00118$
   0652                    1933 00186$:
                           1934 ;src/keypad.c:387: lcd_goto_xy(current_blink_params->position, 0);
                           1935 ;     genAssign
   0652 AA*00              1936 	mov	r2,_current_blink_params
   0654 AB*01              1937 	mov	r3,(_current_blink_params + 1)
   0656 AC*02              1938 	mov	r4,(_current_blink_params + 2)
                           1939 ;     genPointerGet
                           1940 ;     genGenPointerGet
   0658 8A 82              1941 	mov	dpl,r2
   065A 8B 83              1942 	mov	dph,r3
   065C 8C F0              1943 	mov	b,r4
   065E 12s00r00           1944 	lcall	__gptrget
   0661 FA                 1945 	mov	r2,a
                           1946 ;     genIpush
                           1947 ;       Peephole 181    changed mov to clr
   0662 E4                 1948 	clr     a
   0663 C0 E0              1949 	push	acc
                           1950 ;     genCall
   0665 8A 82              1951 	mov	dpl,r2
   0667 12s00r00           1952 	lcall	_lcd_goto_xy
   066A 15 81              1953 	dec	sp
                           1954 ;src/keypad.c:388: lcd_put_string(current_blink_params->first_pattern_on);
                           1955 ;     genAssign
   066C AA*00              1956 	mov	r2,_current_blink_params
   066E AB*01              1957 	mov	r3,(_current_blink_params + 1)
   0670 AC*02              1958 	mov	r4,(_current_blink_params + 2)
                           1959 ;     genPlus
                           1960 ;     genPlusIncr
   0672 0A                 1961 	inc	r2
   0673 BA 00 01           1962 	cjne	r2,#0x00,00187$
   0676 0B                 1963 	inc	r3
   0677                    1964 00187$:
                           1965 ;     genPointerGet
                           1966 ;     genGenPointerGet
   0677 8A 82              1967 	mov	dpl,r2
   0679 8B 83              1968 	mov	dph,r3
   067B 8C F0              1969 	mov	b,r4
   067D 12s00r00           1970 	lcall	__gptrget
   0680 FA                 1971 	mov	r2,a
   0681 A3                 1972 	inc	dptr
   0682 12s00r00           1973 	lcall	__gptrget
   0685 FB                 1974 	mov	r3,a
   0686 A3                 1975 	inc	dptr
   0687 12s00r00           1976 	lcall	__gptrget
   068A FC                 1977 	mov	r4,a
                           1978 ;     genCall
   068B 8A 82              1979 	mov	dpl,r2
   068D 8B 83              1980 	mov	dph,r3
   068F 8C F0              1981 	mov	b,r4
   0691 12s00r00           1982 	lcall	_lcd_put_string
                           1983 ;src/keypad.c:390: if (current_blink_params->lines > 1)
                           1984 ;     genAssign
   0694 AA*00              1985 	mov	r2,_current_blink_params
   0696 AB*01              1986 	mov	r3,(_current_blink_params + 1)
   0698 AC*02              1987 	mov	r4,(_current_blink_params + 2)
                           1988 ;     genPlus
   069A 74 0D              1989 	mov	a,#0x0D
                           1990 ;       Peephole 236.a  used r2 instead of ar2
   069C 2A                 1991 	add     a,r2
   069D FA                 1992 	mov	r2,a
                           1993 ;       Peephole 181    changed mov to clr
   069E E4                 1994 	clr     a
                           1995 ;       Peephole 236.b  used r3 instead of ar3
   069F 3B                 1996 	addc    a,r3
   06A0 FB                 1997 	mov	r3,a
                           1998 ;     genPointerGet
                           1999 ;     genGenPointerGet
   06A1 8A 82              2000 	mov	dpl,r2
   06A3 8B 83              2001 	mov	dph,r3
   06A5 8C F0              2002 	mov	b,r4
   06A7 12s00r00           2003 	lcall	__gptrget
   06AA FA                 2004 	mov	r2,a
                           2005 ;     genCmpGt
                           2006 ;     genCmp
   06AB C3                 2007 	clr	c
                           2008 ;       Peephole 159    avoided xrl during execution
   06AC 74 81              2009 	mov  a,#(0x01 ^ 0x80)
   06AE 8A F0              2010 	mov	b,r2
   06B0 63 F0 80           2011 	xrl	b,#0x80
   06B3 95 F0              2012 	subb	a,b
                           2013 ;     genIfxJump
                           2014 ;       Peephole 108    removed ljmp by inverse jump logic
   06B5 50 45              2015 	jnc     00114$
   06B7                    2016 00188$:
                           2017 ;src/keypad.c:392: lcd_goto_xy(current_blink_params->position, 1);
                           2018 ;     genAssign
   06B7 AA*00              2019 	mov	r2,_current_blink_params
   06B9 AB*01              2020 	mov	r3,(_current_blink_params + 1)
   06BB AC*02              2021 	mov	r4,(_current_blink_params + 2)
                           2022 ;     genPointerGet
                           2023 ;     genGenPointerGet
   06BD 8A 82              2024 	mov	dpl,r2
   06BF 8B 83              2025 	mov	dph,r3
   06C1 8C F0              2026 	mov	b,r4
   06C3 12s00r00           2027 	lcall	__gptrget
   06C6 FA                 2028 	mov	r2,a
                           2029 ;     genIpush
   06C7 74 01              2030 	mov	a,#0x01
   06C9 C0 E0              2031 	push	acc
                           2032 ;     genCall
   06CB 8A 82              2033 	mov	dpl,r2
   06CD 12s00r00           2034 	lcall	_lcd_goto_xy
   06D0 15 81              2035 	dec	sp
                           2036 ;src/keypad.c:393: lcd_put_string(current_blink_params->second_pattern_on);
                           2037 ;     genAssign
   06D2 AA*00              2038 	mov	r2,_current_blink_params
   06D4 AB*01              2039 	mov	r3,(_current_blink_params + 1)
   06D6 AC*02              2040 	mov	r4,(_current_blink_params + 2)
                           2041 ;     genPlus
   06D8 74 07              2042 	mov	a,#0x07
                           2043 ;       Peephole 236.a  used r2 instead of ar2
   06DA 2A                 2044 	add     a,r2
   06DB FA                 2045 	mov	r2,a
                           2046 ;       Peephole 181    changed mov to clr
   06DC E4                 2047 	clr     a
                           2048 ;       Peephole 236.b  used r3 instead of ar3
   06DD 3B                 2049 	addc    a,r3
   06DE FB                 2050 	mov	r3,a
                           2051 ;     genPointerGet
                           2052 ;     genGenPointerGet
   06DF 8A 82              2053 	mov	dpl,r2
   06E1 8B 83              2054 	mov	dph,r3
   06E3 8C F0              2055 	mov	b,r4
   06E5 12s00r00           2056 	lcall	__gptrget
   06E8 FA                 2057 	mov	r2,a
   06E9 A3                 2058 	inc	dptr
   06EA 12s00r00           2059 	lcall	__gptrget
   06ED FB                 2060 	mov	r3,a
   06EE A3                 2061 	inc	dptr
   06EF 12s00r00           2062 	lcall	__gptrget
   06F2 FC                 2063 	mov	r4,a
                           2064 ;     genCall
   06F3 8A 82              2065 	mov	dpl,r2
   06F5 8B 83              2066 	mov	dph,r3
   06F7 8C F0              2067 	mov	b,r4
   06F9 12s00r00           2068 	lcall	_lcd_put_string
   06FC                    2069 00114$:
                           2070 ;src/keypad.c:396: blink_counter = 0;
                           2071 ;     genAssign
   06FC 75*04 00           2072 	mov	_blink_counter,#0x00
   06FF                    2073 00118$:
                           2074 ;src/keypad.c:400: if (counter++ >= 5)
                           2075 ;     genAssign
   06FF AA*06              2076 	mov	r2,_timer0_interrupt_counter_1_1
                           2077 ;     genPlus
                           2078 ;     genPlusIncr
   0701 05*06              2079 	inc	_timer0_interrupt_counter_1_1
                           2080 ;     genCmpLt
                           2081 ;     genCmp
   0703 BA 05 00           2082 	cjne	r2,#0x05,00189$
   0706                    2083 00189$:
                           2084 ;     genIfxJump
   0706 50 03              2085 	jnc	00190$
   0708 02s08r23           2086 	ljmp	00147$
   070B                    2087 00190$:
                           2088 ;src/keypad.c:402: counter = 0;
                           2089 ;     genAssign
   070B 75*06 00           2090 	mov	_timer0_interrupt_counter_1_1,#0x00
                           2091 ;src/keypad.c:403: empty = 0;
                           2092 ;     genAssign
   070E 7A 00              2093 	mov	r2,#0x00
                           2094 ;src/keypad.c:426: KSC1 = 0;
                           2095 ;     genAssign
   0710 C2 85              2096 	clr	_P0_5
                           2097 ;src/keypad.c:427: input_value = (KEYBOARD_PORT >> 1) & 0xF;
                           2098 ;     genRightShift
                           2099 ;     genRightShiftLiteral
                           2100 ;     genrshOne
   0712 E5 80              2101 	mov	a,_P0
   0714 C3                 2102 	clr	c
   0715 13                 2103 	rrc	a
   0716 FB                 2104 	mov	r3,a
                           2105 ;     genAnd
   0717 53 03 0F           2106 	anl	ar3,#0x0F
                           2107 ;src/keypad.c:428: if ( input_value != 0x0F ) 
                           2108 ;     genCmpEq
   071A BB 0F 02           2109 	cjne	r3,#0x0F,00191$
                           2110 ;       Peephole 112.b  changed ljmp to sjmp
   071D 80 30              2111 	sjmp    00124$
   071F                    2112 00191$:
                           2113 ;src/keypad.c:430: empty++;
                           2114 ;     genAssign
   071F 7A 01              2115 	mov	r2,#0x01
                           2116 ;src/keypad.c:431: input_value |= 0x10;
                           2117 ;     genOr
   0721 43 03 10           2118 	orl	ar3,#0x10
                           2119 ;src/keypad.c:432: key_code = find_mapping_code(input_value);
                           2120 ;     genCall
   0724 8B 82              2121 	mov	dpl,r3
   0726 C0 02              2122 	push	ar2
   0728 12s00r00           2123 	lcall	_find_mapping_code
   072B AC 82              2124 	mov	r4,dpl
   072D D0 02              2125 	pop	ar2
                           2126 ;     genAssign
                           2127 ;src/keypad.c:434: if (key_code != SCAN_ERROR)
                           2128 ;     genCmpEq
   072F BC 92 02           2129 	cjne	r4,#0x92,00192$
                           2130 ;       Peephole 112.b  changed ljmp to sjmp
   0732 80 1B              2131 	sjmp    00124$
   0734                    2132 00192$:
                           2133 ;src/keypad.c:436: if (key_code != kb.last_code)
                           2134 ;     genPointerGet
                           2135 ;     genFarPointerGet
   0734 90s00r00           2136 	mov	dptr,#_kb
   0737 E0                 2137 	movx	a,@dptr
   0738 FD                 2138 	mov	r5,a
                           2139 ;     genCmpEq
   0739 EC                 2140 	mov	a,r4
   073A B5 05 02           2141 	cjne	a,ar5,00193$
                           2142 ;       Peephole 112.b  changed ljmp to sjmp
   073D 80 10              2143 	sjmp    00124$
   073F                    2144 00193$:
                           2145 ;src/keypad.c:438: kb.buffer = key_code;
                           2146 ;     genPointerSet
                           2147 ;     genFarPointerSet
   073F 90s00r02           2148 	mov	dptr,#(_kb + 0x0002)
   0742 EC                 2149 	mov	a,r4
   0743 F0                 2150 	movx	@dptr,a
                           2151 ;src/keypad.c:439: kb.last_code = key_code;
                           2152 ;     genPointerSet
                           2153 ;     genFarPointerSet
   0744 90s00r00           2154 	mov	dptr,#_kb
   0747 EC                 2155 	mov	a,r4
   0748 F0                 2156 	movx	@dptr,a
                           2157 ;src/keypad.c:440: kb.status = DATA_AVAILABLE;
                           2158 ;     genPointerSet
                           2159 ;     genFarPointerSet
   0749 90s00r01           2160 	mov	dptr,#(_kb + 0x0001)
   074C 74 91              2161 	mov	a,#0x91
   074E F0                 2162 	movx	@dptr,a
   074F                    2163 00124$:
                           2164 ;src/keypad.c:445: KSC1 = 1;
                           2165 ;     genAssign
   074F D2 85              2166 	setb	_P0_5
                           2167 ;src/keypad.c:447: KSC2 = 0;
                           2168 ;     genAssign
   0751 C2 86              2169 	clr	_P0_6
                           2170 ;src/keypad.c:448: input_value = (KEYBOARD_PORT >> 1) & 0xF;
                           2171 ;     genRightShift
                           2172 ;     genRightShiftLiteral
                           2173 ;     genrshOne
   0753 E5 80              2174 	mov	a,_P0
   0755 C3                 2175 	clr	c
   0756 13                 2176 	rrc	a
   0757 FD                 2177 	mov	r5,a
                           2178 ;     genAnd
   0758 74 0F              2179 	mov	a,#0x0F
   075A 5D                 2180 	anl	a,r5
   075B FB                 2181 	mov	r3,a
                           2182 ;src/keypad.c:449: if ( input_value != 0x0F ) 
                           2183 ;     genCmpEq
   075C BB 0F 02           2184 	cjne	r3,#0x0F,00194$
                           2185 ;       Peephole 112.b  changed ljmp to sjmp
   075F 80 31              2186 	sjmp    00130$
   0761                    2187 00194$:
                           2188 ;src/keypad.c:451: empty++;
                           2189 ;     genPlus
                           2190 ;     genPlusIncr
   0761 0A                 2191 	inc	r2
                           2192 ;src/keypad.c:453: input_value |= 0x20;
                           2193 ;     genOr
   0762 43 03 20           2194 	orl	ar3,#0x20
                           2195 ;src/keypad.c:454: key_code = find_mapping_code(input_value);
                           2196 ;     genCall
   0765 8B 82              2197 	mov	dpl,r3
   0767 C0 02              2198 	push	ar2
   0769 12s00r00           2199 	lcall	_find_mapping_code
   076C AD 82              2200 	mov	r5,dpl
   076E D0 02              2201 	pop	ar2
                           2202 ;     genAssign
   0770 8D 04              2203 	mov	ar4,r5
                           2204 ;src/keypad.c:456: if (key_code != SCAN_ERROR)
                           2205 ;     genCmpEq
   0772 BC 92 02           2206 	cjne	r4,#0x92,00195$
                           2207 ;       Peephole 112.b  changed ljmp to sjmp
   0775 80 1B              2208 	sjmp    00130$
   0777                    2209 00195$:
                           2210 ;src/keypad.c:458: if (key_code != kb.last_code)
                           2211 ;     genPointerGet
                           2212 ;     genFarPointerGet
   0777 90s00r00           2213 	mov	dptr,#_kb
   077A E0                 2214 	movx	a,@dptr
   077B FD                 2215 	mov	r5,a
                           2216 ;     genCmpEq
   077C EC                 2217 	mov	a,r4
   077D B5 05 02           2218 	cjne	a,ar5,00196$
                           2219 ;       Peephole 112.b  changed ljmp to sjmp
   0780 80 10              2220 	sjmp    00130$
   0782                    2221 00196$:
                           2222 ;src/keypad.c:460: kb.buffer = key_code;
                           2223 ;     genPointerSet
                           2224 ;     genFarPointerSet
   0782 90s00r02           2225 	mov	dptr,#(_kb + 0x0002)
   0785 EC                 2226 	mov	a,r4
   0786 F0                 2227 	movx	@dptr,a
                           2228 ;src/keypad.c:461: kb.last_code = key_code;
                           2229 ;     genPointerSet
                           2230 ;     genFarPointerSet
   0787 90s00r00           2231 	mov	dptr,#_kb
   078A EC                 2232 	mov	a,r4
   078B F0                 2233 	movx	@dptr,a
                           2234 ;src/keypad.c:462: kb.status = DATA_AVAILABLE;
                           2235 ;     genPointerSet
                           2236 ;     genFarPointerSet
   078C 90s00r01           2237 	mov	dptr,#(_kb + 0x0001)
   078F 74 91              2238 	mov	a,#0x91
   0791 F0                 2239 	movx	@dptr,a
   0792                    2240 00130$:
                           2241 ;src/keypad.c:467: KSC2 = 1;
                           2242 ;     genAssign
   0792 D2 86              2243 	setb	_P0_6
                           2244 ;src/keypad.c:469: KSC3 = 0;
                           2245 ;     genAssign
   0794 C2 87              2246 	clr	_P0_7
                           2247 ;src/keypad.c:470: input_value = (KEYBOARD_PORT >> 1) & 0xF;
                           2248 ;     genRightShift
                           2249 ;     genRightShiftLiteral
                           2250 ;     genrshOne
   0796 E5 80              2251 	mov	a,_P0
   0798 C3                 2252 	clr	c
   0799 13                 2253 	rrc	a
   079A FD                 2254 	mov	r5,a
                           2255 ;     genAnd
   079B 74 0F              2256 	mov	a,#0x0F
   079D 5D                 2257 	anl	a,r5
   079E FB                 2258 	mov	r3,a
                           2259 ;src/keypad.c:471: if ( input_value != 0x0F ) 
                           2260 ;     genCmpEq
   079F BB 0F 02           2261 	cjne	r3,#0x0F,00197$
                           2262 ;       Peephole 112.b  changed ljmp to sjmp
   07A2 80 31              2263 	sjmp    00136$
   07A4                    2264 00197$:
                           2265 ;src/keypad.c:473: empty++;
                           2266 ;     genPlus
                           2267 ;     genPlusIncr
   07A4 0A                 2268 	inc	r2
                           2269 ;src/keypad.c:475: input_value |= 0x30;
                           2270 ;     genOr
   07A5 43 03 30           2271 	orl	ar3,#0x30
                           2272 ;src/keypad.c:476: key_code = find_mapping_code(input_value);
                           2273 ;     genCall
   07A8 8B 82              2274 	mov	dpl,r3
   07AA C0 02              2275 	push	ar2
   07AC 12s00r00           2276 	lcall	_find_mapping_code
   07AF AD 82              2277 	mov	r5,dpl
   07B1 D0 02              2278 	pop	ar2
                           2279 ;     genAssign
   07B3 8D 04              2280 	mov	ar4,r5
                           2281 ;src/keypad.c:478: if (key_code != SCAN_ERROR)
                           2282 ;     genCmpEq
   07B5 BC 92 02           2283 	cjne	r4,#0x92,00198$
                           2284 ;       Peephole 112.b  changed ljmp to sjmp
   07B8 80 1B              2285 	sjmp    00136$
   07BA                    2286 00198$:
                           2287 ;src/keypad.c:480: if (key_code != kb.last_code)
                           2288 ;     genPointerGet
                           2289 ;     genFarPointerGet
   07BA 90s00r00           2290 	mov	dptr,#_kb
   07BD E0                 2291 	movx	a,@dptr
   07BE FD                 2292 	mov	r5,a
                           2293 ;     genCmpEq
   07BF EC                 2294 	mov	a,r4
   07C0 B5 05 02           2295 	cjne	a,ar5,00199$
                           2296 ;       Peephole 112.b  changed ljmp to sjmp
   07C3 80 10              2297 	sjmp    00136$
   07C5                    2298 00199$:
                           2299 ;src/keypad.c:482: kb.buffer = key_code;
                           2300 ;     genPointerSet
                           2301 ;     genFarPointerSet
   07C5 90s00r02           2302 	mov	dptr,#(_kb + 0x0002)
   07C8 EC                 2303 	mov	a,r4
   07C9 F0                 2304 	movx	@dptr,a
                           2305 ;src/keypad.c:483: kb.last_code = key_code;
                           2306 ;     genPointerSet
                           2307 ;     genFarPointerSet
   07CA 90s00r00           2308 	mov	dptr,#_kb
   07CD EC                 2309 	mov	a,r4
   07CE F0                 2310 	movx	@dptr,a
                           2311 ;src/keypad.c:484: kb.status = DATA_AVAILABLE;
                           2312 ;     genPointerSet
                           2313 ;     genFarPointerSet
   07CF 90s00r01           2314 	mov	dptr,#(_kb + 0x0001)
   07D2 74 91              2315 	mov	a,#0x91
   07D4 F0                 2316 	movx	@dptr,a
   07D5                    2317 00136$:
                           2318 ;src/keypad.c:489: KSC3 = 1;
                           2319 ;     genAssign
   07D5 D2 87              2320 	setb	_P0_7
                           2321 ;src/keypad.c:491: KSC4 = 0;
                           2322 ;     genAssign
   07D7 C2 B7              2323 	clr	_P3_7
                           2324 ;src/keypad.c:492: input_value = (KEYBOARD_PORT >> 1) & 0xF;
                           2325 ;     genRightShift
                           2326 ;     genRightShiftLiteral
                           2327 ;     genrshOne
   07D9 E5 80              2328 	mov	a,_P0
   07DB C3                 2329 	clr	c
   07DC 13                 2330 	rrc	a
   07DD FD                 2331 	mov	r5,a
                           2332 ;     genAnd
   07DE 74 0F              2333 	mov	a,#0x0F
   07E0 5D                 2334 	anl	a,r5
   07E1 FB                 2335 	mov	r3,a
                           2336 ;src/keypad.c:493: if ( input_value != 0x0F ) 
                           2337 ;     genCmpEq
   07E2 BB 0F 02           2338 	cjne	r3,#0x0F,00200$
                           2339 ;       Peephole 112.b  changed ljmp to sjmp
   07E5 80 31              2340 	sjmp    00142$
   07E7                    2341 00200$:
                           2342 ;src/keypad.c:495: empty++;
                           2343 ;     genPlus
                           2344 ;     genPlusIncr
   07E7 0A                 2345 	inc	r2
                           2346 ;src/keypad.c:497: input_value |= 0x40;
                           2347 ;     genOr
   07E8 43 03 40           2348 	orl	ar3,#0x40
                           2349 ;src/keypad.c:498: key_code = find_mapping_code(input_value);
                           2350 ;     genCall
   07EB 8B 82              2351 	mov	dpl,r3
   07ED C0 02              2352 	push	ar2
   07EF 12s00r00           2353 	lcall	_find_mapping_code
   07F2 AB 82              2354 	mov	r3,dpl
   07F4 D0 02              2355 	pop	ar2
                           2356 ;     genAssign
   07F6 8B 04              2357 	mov	ar4,r3
                           2358 ;src/keypad.c:500: if (key_code != SCAN_ERROR)
                           2359 ;     genCmpEq
   07F8 BC 92 02           2360 	cjne	r4,#0x92,00201$
                           2361 ;       Peephole 112.b  changed ljmp to sjmp
   07FB 80 1B              2362 	sjmp    00142$
   07FD                    2363 00201$:
                           2364 ;src/keypad.c:502: if (key_code != kb.last_code)
                           2365 ;     genPointerGet
                           2366 ;     genFarPointerGet
   07FD 90s00r00           2367 	mov	dptr,#_kb
   0800 E0                 2368 	movx	a,@dptr
   0801 FB                 2369 	mov	r3,a
                           2370 ;     genCmpEq
   0802 EC                 2371 	mov	a,r4
   0803 B5 03 02           2372 	cjne	a,ar3,00202$
                           2373 ;       Peephole 112.b  changed ljmp to sjmp
   0806 80 10              2374 	sjmp    00142$
   0808                    2375 00202$:
                           2376 ;src/keypad.c:504: kb.buffer = key_code;
                           2377 ;     genPointerSet
                           2378 ;     genFarPointerSet
   0808 90s00r02           2379 	mov	dptr,#(_kb + 0x0002)
   080B EC                 2380 	mov	a,r4
   080C F0                 2381 	movx	@dptr,a
                           2382 ;src/keypad.c:505: kb.last_code = key_code;
                           2383 ;     genPointerSet
                           2384 ;     genFarPointerSet
   080D 90s00r00           2385 	mov	dptr,#_kb
   0810 EC                 2386 	mov	a,r4
   0811 F0                 2387 	movx	@dptr,a
                           2388 ;src/keypad.c:506: kb.status = DATA_AVAILABLE;
                           2389 ;     genPointerSet
                           2390 ;     genFarPointerSet
   0812 90s00r01           2391 	mov	dptr,#(_kb + 0x0001)
   0815 74 91              2392 	mov	a,#0x91
   0817 F0                 2393 	movx	@dptr,a
   0818                    2394 00142$:
                           2395 ;src/keypad.c:511: KSC4 = 1;
                           2396 ;     genAssign
   0818 D2 B7              2397 	setb	_P3_7
                           2398 ;src/keypad.c:513: if (empty == 0)
                           2399 ;     genCmpEq
                           2400 ;       Peephole 112.b  changed ljmp to sjmp
                           2401 ;       Peephole 199    optimized misc jump sequence
   081A BA 00 06           2402 	cjne    r2,#0x00,00147$
                           2403 ;00203$:
                           2404 ;       Peephole 200    removed redundant sjmp
   081D                    2405 00204$:
                           2406 ;src/keypad.c:515: kb.last_code = BUFFER_EMPTY;
                           2407 ;     genPointerSet
                           2408 ;     genFarPointerSet
   081D 90s00r00           2409 	mov	dptr,#_kb
   0820 74 90              2410 	mov	a,#0x90
   0822 F0                 2411 	movx	@dptr,a
   0823                    2412 00147$:
   0823 85*00 81           2413 	mov	sp,_bp
   0826 D0*00              2414 	pop	_bp
   0828 D0 D0              2415 	pop	psw
   082A D0 01              2416 	pop	(0+1)
   082C D0 00              2417 	pop	(0+0)
   082E D0 07              2418 	pop	(0+7)
   0830 D0 06              2419 	pop	(0+6)
   0832 D0 05              2420 	pop	(0+5)
   0834 D0 04              2421 	pop	(0+4)
   0836 D0 03              2422 	pop	(0+3)
   0838 D0 02              2423 	pop	(0+2)
   083A D0 83              2424 	pop	dph
   083C D0 82              2425 	pop	dpl
   083E D0 F0              2426 	pop	b
   0840 D0 E0              2427 	pop	acc
   0842 32                 2428 	reti
                           2429 	.area CSEG    (CODE)
   0843                    2430 _mappingTable:
   0843 3E 00              2431 	.byte #0x3E,#0x00
   0845 00 00              2432 	.byte #0x00,#0x00
   0847rB7s08 02           2433 	.byte _str_0,(_str_0 >> 8),#0x02
   084A 47 00              2434 	.byte #0x47,#0x00
   084C 01 00              2435 	.byte #0x01,#0x00
   084ErB9s08 02           2436 	.byte _str_1,(_str_1 >> 8),#0x02
   0851 37 00              2437 	.byte #0x37,#0x00
   0853 02 00              2438 	.byte #0x02,#0x00
   0855rBBs08 02           2439 	.byte _str_2,(_str_2 >> 8),#0x02
   0858 27 00              2440 	.byte #0x27,#0x00
   085A 03 00              2441 	.byte #0x03,#0x00
   085CrBDs08 02           2442 	.byte _str_3,(_str_3 >> 8),#0x02
   085F 4B 00              2443 	.byte #0x4B,#0x00
   0861 04 00              2444 	.byte #0x04,#0x00
   0863rBFs08 02           2445 	.byte _str_4,(_str_4 >> 8),#0x02
   0866 3B 00              2446 	.byte #0x3B,#0x00
   0868 05 00              2447 	.byte #0x05,#0x00
   086ArC1s08 02           2448 	.byte _str_5,(_str_5 >> 8),#0x02
   086D 2B 00              2449 	.byte #0x2B,#0x00
   086F 06 00              2450 	.byte #0x06,#0x00
   0871rC3s08 02           2451 	.byte _str_6,(_str_6 >> 8),#0x02
   0874 4D 00              2452 	.byte #0x4D,#0x00
   0876 07 00              2453 	.byte #0x07,#0x00
   0878rC5s08 02           2454 	.byte _str_7,(_str_7 >> 8),#0x02
   087B 3D 00              2455 	.byte #0x3D,#0x00
   087D 08 00              2456 	.byte #0x08,#0x00
   087FrC7s08 02           2457 	.byte _str_8,(_str_8 >> 8),#0x02
   0882 2D 00              2458 	.byte #0x2D,#0x00
   0884 09 00              2459 	.byte #0x09,#0x00
   0886rC9s08 02           2460 	.byte _str_9,(_str_9 >> 8),#0x02
   0889 17 00              2461 	.byte #0x17,#0x00
   088B 10 00              2462 	.byte #0x10,#0x00
   088DrCBs08 02           2463 	.byte _str_10,(_str_10 >> 8),#0x02
   0890 1B 00              2464 	.byte #0x1B,#0x00
   0892 11 00              2465 	.byte #0x11,#0x00
   0894rD0s08 02           2466 	.byte _str_11,(_str_11 >> 8),#0x02
   0897 4E 00              2467 	.byte #0x4E,#0x00
   0899 15 00              2468 	.byte #0x15,#0x00
   089BrD6s08 02           2469 	.byte _str_12,(_str_12 >> 8),#0x02
   089E 2E 00              2470 	.byte #0x2E,#0x00
   08A0 16 00              2471 	.byte #0x16,#0x00
   08A2rD8s08 02           2472 	.byte _str_13,(_str_13 >> 8),#0x02
   08A5 1E 00              2473 	.byte #0x1E,#0x00
   08A7 13 00              2474 	.byte #0x13,#0x00
   08A9rDAs08 02           2475 	.byte _str_14,(_str_14 >> 8),#0x02
   08AC 1D 00              2476 	.byte #0x1D,#0x00
   08AE 14 00              2477 	.byte #0x14,#0x00
   08B0rE0s08 02           2478 	.byte _str_15,(_str_15 >> 8),#0x02
   08B3 00 00              2479 	.byte #0x00,#0x00
   08B5 00 00              2480 	.byte #0x00,#0x00
   08B7                    2481 _str_0:
   08B7 30                 2482 	.ascii "0"
   08B8 00                 2483 	.db 0x00
   08B9                    2484 _str_1:
   08B9 31                 2485 	.ascii "1"
   08BA 00                 2486 	.db 0x00
   08BB                    2487 _str_2:
   08BB 32                 2488 	.ascii "2"
   08BC 00                 2489 	.db 0x00
   08BD                    2490 _str_3:
   08BD 33                 2491 	.ascii "3"
   08BE 00                 2492 	.db 0x00
   08BF                    2493 _str_4:
   08BF 34                 2494 	.ascii "4"
   08C0 00                 2495 	.db 0x00
   08C1                    2496 _str_5:
   08C1 35                 2497 	.ascii "5"
   08C2 00                 2498 	.db 0x00
   08C3                    2499 _str_6:
   08C3 36                 2500 	.ascii "6"
   08C4 00                 2501 	.db 0x00
   08C5                    2502 _str_7:
   08C5 37                 2503 	.ascii "7"
   08C6 00                 2504 	.db 0x00
   08C7                    2505 _str_8:
   08C7 38                 2506 	.ascii "8"
   08C8 00                 2507 	.db 0x00
   08C9                    2508 _str_9:
   08C9 39                 2509 	.ascii "9"
   08CA 00                 2510 	.db 0x00
   08CB                    2511 _str_10:
   08CB 4C 45 46 54        2512 	.ascii "LEFT"
   08CF 00                 2513 	.db 0x00
   08D0                    2514 _str_11:
   08D0 52 49 47 48 54     2515 	.ascii "RIGHT"
   08D5 00                 2516 	.db 0x00
   08D6                    2517 _str_12:
   08D6 2A                 2518 	.ascii "*"
   08D7 00                 2519 	.db 0x00
   08D8                    2520 _str_13:
   08D8 23                 2521 	.ascii "#"
   08D9 00                 2522 	.db 0x00
   08DA                    2523 _str_14:
   08DA 43 4C 45 41 52     2524 	.ascii "CLEAR"
   08DF 00                 2525 	.db 0x00
   08E0                    2526 _str_15:
   08E0 45 4E 54 45 52     2527 	.ascii "ENTER"
   08E5 00                 2528 	.db 0x00
                           2529 	.area XINIT   (CODE)
